
./output/kernel8.elf:     file format elf64-littleaarch64


Disassembly of section .text:

0000000000080000 <__start>:
   80000:	d53800a0 	mrs	x0, mpidr_el1
   80004:	92400400 	and	x0, x0, #0x3
   80008:	b5000180 	cbnz	x0, 80038 <halt>
   8000c:	580001a0 	ldr	x0, 80040 <halt+0x8>
   80010:	9100001f 	mov	sp, x0
   80014:	580001a4 	ldr	x4, 80048 <halt+0x10>
   80018:	580001c9 	ldr	x9, 80050 <halt+0x18>
   8001c:	52800005 	mov	w5, #0x0                   	// #0

0000000000080020 <bss_next_word>:
   80020:	eb09009f 	cmp	x4, x9
   80024:	5400008a 	b.ge	80034 <bss_end>  // b.tcont
   80028:	b9000085 	str	w5, [x4]
   8002c:	91001084 	add	x4, x4, #0x4
   80030:	17fffffc 	b	80020 <bss_next_word>

0000000000080034 <bss_end>:
   80034:	9400056d 	bl	815e8 <main>

0000000000080038 <halt>:
   80038:	d503205f 	wfe
   8003c:	17ffffff 	b	80038 <halt>
   80040:	0008b0f0 	.inst	0x0008b0f0 ; undefined
   80044:	00000000 	udf	#0
   80048:	00084de0 	.inst	0x00084de0 ; undefined
   8004c:	00000000 	udf	#0
   80050:	000880a0 	.inst	0x000880a0 ; undefined
   80054:	00000000 	udf	#0

0000000000080058 <fb_init>:
   80058:	a9bf7bfd 	stp	x29, x30, [sp, #-16]!
   8005c:	910003fd 	mov	x29, sp
   80060:	90000020 	adrp	x0, 84000 <fonts_init+0x2930>
   80064:	91380000 	add	x0, x0, #0xe00
   80068:	52801181 	mov	w1, #0x8c                  	// #140
   8006c:	b9000001 	str	w1, [x0]
   80070:	90000020 	adrp	x0, 84000 <fonts_init+0x2930>
   80074:	91380000 	add	x0, x0, #0xe00
   80078:	b900041f 	str	wzr, [x0, #4]
   8007c:	90000020 	adrp	x0, 84000 <fonts_init+0x2930>
   80080:	91380000 	add	x0, x0, #0xe00
   80084:	52900061 	mov	w1, #0x8003                	// #32771
   80088:	72a00081 	movk	w1, #0x4, lsl #16
   8008c:	b9000801 	str	w1, [x0, #8]
   80090:	90000020 	adrp	x0, 84000 <fonts_init+0x2930>
   80094:	91380000 	add	x0, x0, #0xe00
   80098:	52800101 	mov	w1, #0x8                   	// #8
   8009c:	b9000c01 	str	w1, [x0, #12]
   800a0:	90000020 	adrp	x0, 84000 <fonts_init+0x2930>
   800a4:	91380000 	add	x0, x0, #0xe00
   800a8:	52800101 	mov	w1, #0x8                   	// #8
   800ac:	b9001001 	str	w1, [x0, #16]
   800b0:	90000020 	adrp	x0, 84000 <fonts_init+0x2930>
   800b4:	91380000 	add	x0, x0, #0xe00
   800b8:	52808001 	mov	w1, #0x400                 	// #1024
   800bc:	b9001401 	str	w1, [x0, #20]
   800c0:	90000020 	adrp	x0, 84000 <fonts_init+0x2930>
   800c4:	91380000 	add	x0, x0, #0xe00
   800c8:	52806001 	mov	w1, #0x300                 	// #768
   800cc:	b9001801 	str	w1, [x0, #24]
   800d0:	90000020 	adrp	x0, 84000 <fonts_init+0x2930>
   800d4:	91380000 	add	x0, x0, #0xe00
   800d8:	52900081 	mov	w1, #0x8004                	// #32772
   800dc:	72a00081 	movk	w1, #0x4, lsl #16
   800e0:	b9001c01 	str	w1, [x0, #28]
   800e4:	90000020 	adrp	x0, 84000 <fonts_init+0x2930>
   800e8:	91380000 	add	x0, x0, #0xe00
   800ec:	52800101 	mov	w1, #0x8                   	// #8
   800f0:	b9002001 	str	w1, [x0, #32]
   800f4:	90000020 	adrp	x0, 84000 <fonts_init+0x2930>
   800f8:	91380000 	add	x0, x0, #0xe00
   800fc:	52800101 	mov	w1, #0x8                   	// #8
   80100:	b9002401 	str	w1, [x0, #36]
   80104:	90000020 	adrp	x0, 84000 <fonts_init+0x2930>
   80108:	91380000 	add	x0, x0, #0xe00
   8010c:	52808001 	mov	w1, #0x400                 	// #1024
   80110:	b9002801 	str	w1, [x0, #40]
   80114:	90000020 	adrp	x0, 84000 <fonts_init+0x2930>
   80118:	91380000 	add	x0, x0, #0xe00
   8011c:	52806001 	mov	w1, #0x300                 	// #768
   80120:	b9002c01 	str	w1, [x0, #44]
   80124:	90000020 	adrp	x0, 84000 <fonts_init+0x2930>
   80128:	91380000 	add	x0, x0, #0xe00
   8012c:	52900121 	mov	w1, #0x8009                	// #32777
   80130:	72a00081 	movk	w1, #0x4, lsl #16
   80134:	b9003001 	str	w1, [x0, #48]
   80138:	90000020 	adrp	x0, 84000 <fonts_init+0x2930>
   8013c:	91380000 	add	x0, x0, #0xe00
   80140:	52800101 	mov	w1, #0x8                   	// #8
   80144:	b9003401 	str	w1, [x0, #52]
   80148:	90000020 	adrp	x0, 84000 <fonts_init+0x2930>
   8014c:	91380000 	add	x0, x0, #0xe00
   80150:	52800101 	mov	w1, #0x8                   	// #8
   80154:	b9003801 	str	w1, [x0, #56]
   80158:	90000020 	adrp	x0, 84000 <fonts_init+0x2930>
   8015c:	91380000 	add	x0, x0, #0xe00
   80160:	b9003c1f 	str	wzr, [x0, #60]
   80164:	90000020 	adrp	x0, 84000 <fonts_init+0x2930>
   80168:	91380000 	add	x0, x0, #0xe00
   8016c:	b900401f 	str	wzr, [x0, #64]
   80170:	90000020 	adrp	x0, 84000 <fonts_init+0x2930>
   80174:	91380000 	add	x0, x0, #0xe00
   80178:	529000a1 	mov	w1, #0x8005                	// #32773
   8017c:	72a00081 	movk	w1, #0x4, lsl #16
   80180:	b9004401 	str	w1, [x0, #68]
   80184:	90000020 	adrp	x0, 84000 <fonts_init+0x2930>
   80188:	91380000 	add	x0, x0, #0xe00
   8018c:	52800081 	mov	w1, #0x4                   	// #4
   80190:	b9004801 	str	w1, [x0, #72]
   80194:	90000020 	adrp	x0, 84000 <fonts_init+0x2930>
   80198:	91380000 	add	x0, x0, #0xe00
   8019c:	52800081 	mov	w1, #0x4                   	// #4
   801a0:	b9004c01 	str	w1, [x0, #76]
   801a4:	90000020 	adrp	x0, 84000 <fonts_init+0x2930>
   801a8:	91380000 	add	x0, x0, #0xe00
   801ac:	52800401 	mov	w1, #0x20                  	// #32
   801b0:	b9005001 	str	w1, [x0, #80]
   801b4:	90000020 	adrp	x0, 84000 <fonts_init+0x2930>
   801b8:	91380000 	add	x0, x0, #0xe00
   801bc:	529000c1 	mov	w1, #0x8006                	// #32774
   801c0:	72a00081 	movk	w1, #0x4, lsl #16
   801c4:	b9005401 	str	w1, [x0, #84]
   801c8:	90000020 	adrp	x0, 84000 <fonts_init+0x2930>
   801cc:	91380000 	add	x0, x0, #0xe00
   801d0:	52800081 	mov	w1, #0x4                   	// #4
   801d4:	b9005801 	str	w1, [x0, #88]
   801d8:	90000020 	adrp	x0, 84000 <fonts_init+0x2930>
   801dc:	91380000 	add	x0, x0, #0xe00
   801e0:	52800081 	mov	w1, #0x4                   	// #4
   801e4:	b9005c01 	str	w1, [x0, #92]
   801e8:	90000020 	adrp	x0, 84000 <fonts_init+0x2930>
   801ec:	91380000 	add	x0, x0, #0xe00
   801f0:	52800021 	mov	w1, #0x1                   	// #1
   801f4:	b9006001 	str	w1, [x0, #96]
   801f8:	90000020 	adrp	x0, 84000 <fonts_init+0x2930>
   801fc:	91380000 	add	x0, x0, #0xe00
   80200:	52800021 	mov	w1, #0x1                   	// #1
   80204:	72a00081 	movk	w1, #0x4, lsl #16
   80208:	b9006401 	str	w1, [x0, #100]
   8020c:	90000020 	adrp	x0, 84000 <fonts_init+0x2930>
   80210:	91380000 	add	x0, x0, #0xe00
   80214:	52800101 	mov	w1, #0x8                   	// #8
   80218:	b9006801 	str	w1, [x0, #104]
   8021c:	90000020 	adrp	x0, 84000 <fonts_init+0x2930>
   80220:	91380000 	add	x0, x0, #0xe00
   80224:	52800101 	mov	w1, #0x8                   	// #8
   80228:	b9006c01 	str	w1, [x0, #108]
   8022c:	90000020 	adrp	x0, 84000 <fonts_init+0x2930>
   80230:	91380000 	add	x0, x0, #0xe00
   80234:	52820001 	mov	w1, #0x1000                	// #4096
   80238:	b9007001 	str	w1, [x0, #112]
   8023c:	90000020 	adrp	x0, 84000 <fonts_init+0x2930>
   80240:	91380000 	add	x0, x0, #0xe00
   80244:	b900741f 	str	wzr, [x0, #116]
   80248:	90000020 	adrp	x0, 84000 <fonts_init+0x2930>
   8024c:	91380000 	add	x0, x0, #0xe00
   80250:	52800101 	mov	w1, #0x8                   	// #8
   80254:	72a00081 	movk	w1, #0x4, lsl #16
   80258:	b9007801 	str	w1, [x0, #120]
   8025c:	90000020 	adrp	x0, 84000 <fonts_init+0x2930>
   80260:	91380000 	add	x0, x0, #0xe00
   80264:	52800081 	mov	w1, #0x4                   	// #4
   80268:	b9007c01 	str	w1, [x0, #124]
   8026c:	90000020 	adrp	x0, 84000 <fonts_init+0x2930>
   80270:	91380000 	add	x0, x0, #0xe00
   80274:	52800081 	mov	w1, #0x4                   	// #4
   80278:	b9008001 	str	w1, [x0, #128]
   8027c:	90000020 	adrp	x0, 84000 <fonts_init+0x2930>
   80280:	91380000 	add	x0, x0, #0xe00
   80284:	b900841f 	str	wzr, [x0, #132]
   80288:	90000020 	adrp	x0, 84000 <fonts_init+0x2930>
   8028c:	91380000 	add	x0, x0, #0xe00
   80290:	b900881f 	str	wzr, [x0, #136]
   80294:	52800100 	mov	w0, #0x8                   	// #8
   80298:	94000035 	bl	8036c <mbox_call>
   8029c:	7100001f 	cmp	w0, #0x0
   802a0:	54000600 	b.eq	80360 <fb_init+0x308>  // b.none
   802a4:	90000020 	adrp	x0, 84000 <fonts_init+0x2930>
   802a8:	91380000 	add	x0, x0, #0xe00
   802ac:	b9405000 	ldr	w0, [x0, #80]
   802b0:	7100801f 	cmp	w0, #0x20
   802b4:	54000561 	b.ne	80360 <fb_init+0x308>  // b.any
   802b8:	90000020 	adrp	x0, 84000 <fonts_init+0x2930>
   802bc:	91380000 	add	x0, x0, #0xe00
   802c0:	b9407000 	ldr	w0, [x0, #112]
   802c4:	7100001f 	cmp	w0, #0x0
   802c8:	540004c0 	b.eq	80360 <fb_init+0x308>  // b.none
   802cc:	90000020 	adrp	x0, 84000 <fonts_init+0x2930>
   802d0:	91380000 	add	x0, x0, #0xe00
   802d4:	b9407000 	ldr	w0, [x0, #112]
   802d8:	12007401 	and	w1, w0, #0x3fffffff
   802dc:	90000020 	adrp	x0, 84000 <fonts_init+0x2930>
   802e0:	91380000 	add	x0, x0, #0xe00
   802e4:	b9007001 	str	w1, [x0, #112]
   802e8:	90000020 	adrp	x0, 84000 <fonts_init+0x2930>
   802ec:	91380000 	add	x0, x0, #0xe00
   802f0:	b9401401 	ldr	w1, [x0, #20]
   802f4:	90000020 	adrp	x0, 84000 <fonts_init+0x2930>
   802f8:	91378000 	add	x0, x0, #0xde0
   802fc:	b9000001 	str	w1, [x0]
   80300:	90000020 	adrp	x0, 84000 <fonts_init+0x2930>
   80304:	91380000 	add	x0, x0, #0xe00
   80308:	b9401801 	ldr	w1, [x0, #24]
   8030c:	90000020 	adrp	x0, 84000 <fonts_init+0x2930>
   80310:	91379000 	add	x0, x0, #0xde4
   80314:	b9000001 	str	w1, [x0]
   80318:	90000020 	adrp	x0, 84000 <fonts_init+0x2930>
   8031c:	91380000 	add	x0, x0, #0xe00
   80320:	b9408401 	ldr	w1, [x0, #132]
   80324:	90000020 	adrp	x0, 84000 <fonts_init+0x2930>
   80328:	9137a000 	add	x0, x0, #0xde8
   8032c:	b9000001 	str	w1, [x0]
   80330:	90000020 	adrp	x0, 84000 <fonts_init+0x2930>
   80334:	91380000 	add	x0, x0, #0xe00
   80338:	b9407000 	ldr	w0, [x0, #112]
   8033c:	2a0003e0 	mov	w0, w0
   80340:	aa0003e1 	mov	x1, x0
   80344:	90000020 	adrp	x0, 84000 <fonts_init+0x2930>
   80348:	9137c000 	add	x0, x0, #0xdf0
   8034c:	f9000001 	str	x1, [x0]
   80350:	90000020 	adrp	x0, 84000 <fonts_init+0x2930>
   80354:	9137c000 	add	x0, x0, #0xdf0
   80358:	f9400000 	ldr	x0, [x0]
   8035c:	14000002 	b	80364 <fb_init+0x30c>
   80360:	d2800000 	mov	x0, #0x0                   	// #0
   80364:	a8c17bfd 	ldp	x29, x30, [sp], #16
   80368:	d65f03c0 	ret

000000000008036c <mbox_call>:
   8036c:	d10083ff 	sub	sp, sp, #0x20
   80370:	39003fe0 	strb	w0, [sp, #15]
   80374:	39403fe0 	ldrb	w0, [sp, #15]
   80378:	12000c01 	and	w1, w0, #0xf
   8037c:	90000020 	adrp	x0, 84000 <fonts_init+0x2930>
   80380:	91380000 	add	x0, x0, #0xe00
   80384:	121c6c00 	and	w0, w0, #0xfffffff0
   80388:	2a000020 	orr	w0, w1, w0
   8038c:	b9001fe0 	str	w0, [sp, #28]
   80390:	d503201f 	nop
   80394:	d2971300 	mov	x0, #0xb898                	// #47256
   80398:	f2a7e000 	movk	x0, #0x3f00, lsl #16
   8039c:	b9400000 	ldr	w0, [x0]
   803a0:	7100001f 	cmp	w0, #0x0
   803a4:	54ffff6b 	b.lt	80390 <mbox_call+0x24>  // b.tstop
   803a8:	d2971400 	mov	x0, #0xb8a0                	// #47264
   803ac:	f2a7e000 	movk	x0, #0x3f00, lsl #16
   803b0:	b9401fe1 	ldr	w1, [sp, #28]
   803b4:	b9000001 	str	w1, [x0]
   803b8:	d503201f 	nop
   803bc:	d2971300 	mov	x0, #0xb898                	// #47256
   803c0:	f2a7e000 	movk	x0, #0x3f00, lsl #16
   803c4:	b9400000 	ldr	w0, [x0]
   803c8:	12020000 	and	w0, w0, #0x40000000
   803cc:	7100001f 	cmp	w0, #0x0
   803d0:	54ffff41 	b.ne	803b8 <mbox_call+0x4c>  // b.any
   803d4:	d2971000 	mov	x0, #0xb880                	// #47232
   803d8:	f2a7e000 	movk	x0, #0x3f00, lsl #16
   803dc:	b9400000 	ldr	w0, [x0]
   803e0:	b9401fe1 	ldr	w1, [sp, #28]
   803e4:	6b00003f 	cmp	w1, w0
   803e8:	54fffe81 	b.ne	803b8 <mbox_call+0x4c>  // b.any
   803ec:	90000020 	adrp	x0, 84000 <fonts_init+0x2930>
   803f0:	91380000 	add	x0, x0, #0xe00
   803f4:	b9400401 	ldr	w1, [x0, #4]
   803f8:	52b00000 	mov	w0, #0x80000000            	// #-2147483648
   803fc:	6b00003f 	cmp	w1, w0
   80400:	1a9f17e0 	cset	w0, eq  // eq = none
   80404:	12001c00 	and	w0, w0, #0xff
   80408:	910083ff 	add	sp, sp, #0x20
   8040c:	d65f03c0 	ret

0000000000080410 <isdigit>:
   80410:	d10043ff 	sub	sp, sp, #0x10
   80414:	39003fe0 	strb	w0, [sp, #15]
   80418:	39403fe0 	ldrb	w0, [sp, #15]
   8041c:	5100c000 	sub	w0, w0, #0x30
   80420:	12001c00 	and	w0, w0, #0xff
   80424:	7100241f 	cmp	w0, #0x9
   80428:	1a9f87e0 	cset	w0, ls  // ls = plast
   8042c:	12001c00 	and	w0, w0, #0xff
   80430:	910043ff 	add	sp, sp, #0x10
   80434:	d65f03c0 	ret

0000000000080438 <local_putc>:
   80438:	a9be7bfd 	stp	x29, x30, [sp, #-32]!
   8043c:	910003fd 	mov	x29, sp
   80440:	39007fe0 	strb	w0, [sp, #31]
   80444:	12800002 	mov	w2, #0xffffffff            	// #-1
   80448:	52800041 	mov	w1, #0x2                   	// #2
   8044c:	39407fe0 	ldrb	w0, [sp, #31]
   80450:	940010fd 	bl	84844 <video_putc>
   80454:	d503201f 	nop
   80458:	a8c27bfd 	ldp	x29, x30, [sp], #32
   8045c:	d65f03c0 	ret

0000000000080460 <kprintf>:
   80460:	a9ae7bfd 	stp	x29, x30, [sp, #-288]!
   80464:	910003fd 	mov	x29, sp
   80468:	f9001fe0 	str	x0, [sp, #56]
   8046c:	f90077e1 	str	x1, [sp, #232]
   80470:	f9007be2 	str	x2, [sp, #240]
   80474:	f9007fe3 	str	x3, [sp, #248]
   80478:	f90083e4 	str	x4, [sp, #256]
   8047c:	f90087e5 	str	x5, [sp, #264]
   80480:	f9008be6 	str	x6, [sp, #272]
   80484:	f9008fe7 	str	x7, [sp, #280]
   80488:	3d801be0 	str	q0, [sp, #96]
   8048c:	3d801fe1 	str	q1, [sp, #112]
   80490:	3d8023e2 	str	q2, [sp, #128]
   80494:	3d8027e3 	str	q3, [sp, #144]
   80498:	3d802be4 	str	q4, [sp, #160]
   8049c:	3d802fe5 	str	q5, [sp, #176]
   804a0:	3d8033e6 	str	q6, [sp, #192]
   804a4:	3d8037e7 	str	q7, [sp, #208]
   804a8:	910483e0 	add	x0, sp, #0x120
   804ac:	f90023e0 	str	x0, [sp, #64]
   804b0:	910483e0 	add	x0, sp, #0x120
   804b4:	f90027e0 	str	x0, [sp, #72]
   804b8:	910383e0 	add	x0, sp, #0xe0
   804bc:	f9002be0 	str	x0, [sp, #80]
   804c0:	128006e0 	mov	w0, #0xffffffc8            	// #-56
   804c4:	b9005be0 	str	w0, [sp, #88]
   804c8:	12800fe0 	mov	w0, #0xffffff80            	// #-128
   804cc:	b9005fe0 	str	w0, [sp, #92]
   804d0:	910043e2 	add	x2, sp, #0x10
   804d4:	910103e3 	add	x3, sp, #0x40
   804d8:	a9400460 	ldp	x0, x1, [x3]
   804dc:	a9000440 	stp	x0, x1, [x2]
   804e0:	a9410460 	ldp	x0, x1, [x3, #16]
   804e4:	a9010440 	stp	x0, x1, [x2, #16]
   804e8:	910043e0 	add	x0, sp, #0x10
   804ec:	aa0003e3 	mov	x3, x0
   804f0:	f9401fe2 	ldr	x2, [sp, #56]
   804f4:	d2800001 	mov	x1, #0x0                   	// #0
   804f8:	90000000 	adrp	x0, 80000 <__start>
   804fc:	9110e000 	add	x0, x0, #0x438
   80500:	9400014f 	bl	80a3c <vcprintf>
   80504:	d503201f 	nop
   80508:	a8d27bfd 	ldp	x29, x30, [sp], #288
   8050c:	d65f03c0 	ret

0000000000080510 <snprintf>:
   80510:	a9ad7bfd 	stp	x29, x30, [sp, #-304]!
   80514:	910003fd 	mov	x29, sp
   80518:	f90027e0 	str	x0, [sp, #72]
   8051c:	f90023e1 	str	x1, [sp, #64]
   80520:	f9001fe2 	str	x2, [sp, #56]
   80524:	f90087e3 	str	x3, [sp, #264]
   80528:	f9008be4 	str	x4, [sp, #272]
   8052c:	f9008fe5 	str	x5, [sp, #280]
   80530:	f90093e6 	str	x6, [sp, #288]
   80534:	f90097e7 	str	x7, [sp, #296]
   80538:	3d8023e0 	str	q0, [sp, #128]
   8053c:	3d8027e1 	str	q1, [sp, #144]
   80540:	3d802be2 	str	q2, [sp, #160]
   80544:	3d802fe3 	str	q3, [sp, #176]
   80548:	3d8033e4 	str	q4, [sp, #192]
   8054c:	3d8037e5 	str	q5, [sp, #208]
   80550:	3d803be6 	str	q6, [sp, #224]
   80554:	3d803fe7 	str	q7, [sp, #240]
   80558:	9104c3e0 	add	x0, sp, #0x130
   8055c:	f9002fe0 	str	x0, [sp, #88]
   80560:	9104c3e0 	add	x0, sp, #0x130
   80564:	f90033e0 	str	x0, [sp, #96]
   80568:	910403e0 	add	x0, sp, #0x100
   8056c:	f90037e0 	str	x0, [sp, #104]
   80570:	128004e0 	mov	w0, #0xffffffd8            	// #-40
   80574:	b90073e0 	str	w0, [sp, #112]
   80578:	12800fe0 	mov	w0, #0xffffff80            	// #-128
   8057c:	b90077e0 	str	w0, [sp, #116]
   80580:	910043e2 	add	x2, sp, #0x10
   80584:	910163e3 	add	x3, sp, #0x58
   80588:	a9400460 	ldp	x0, x1, [x3]
   8058c:	a9000440 	stp	x0, x1, [x2]
   80590:	a9410460 	ldp	x0, x1, [x3, #16]
   80594:	a9010440 	stp	x0, x1, [x2, #16]
   80598:	910043e0 	add	x0, sp, #0x10
   8059c:	aa0003e3 	mov	x3, x0
   805a0:	f9401fe2 	ldr	x2, [sp, #56]
   805a4:	f94023e1 	ldr	x1, [sp, #64]
   805a8:	f94027e0 	ldr	x0, [sp, #72]
   805ac:	940003bb 	bl	81498 <vsnprintf>
   805b0:	b9007fe0 	str	w0, [sp, #124]
   805b4:	b9407fe0 	ldr	w0, [sp, #124]
   805b8:	a8d37bfd 	ldp	x29, x30, [sp], #304
   805bc:	d65f03c0 	ret

00000000000805c0 <atoi>:
   805c0:	a9bd7bfd 	stp	x29, x30, [sp, #-48]!
   805c4:	910003fd 	mov	x29, sp
   805c8:	f9000fe0 	str	x0, [sp, #24]
   805cc:	f9400fe0 	ldr	x0, [sp, #24]
   805d0:	f9400000 	ldr	x0, [x0]
   805d4:	f90017e0 	str	x0, [sp, #40]
   805d8:	b90027ff 	str	wzr, [sp, #36]
   805dc:	1400000e 	b	80614 <atoi+0x54>
   805e0:	b94027e1 	ldr	w1, [sp, #36]
   805e4:	2a0103e0 	mov	w0, w1
   805e8:	531e7400 	lsl	w0, w0, #2
   805ec:	0b010000 	add	w0, w0, w1
   805f0:	531f7800 	lsl	w0, w0, #1
   805f4:	2a0003e2 	mov	w2, w0
   805f8:	f94017e0 	ldr	x0, [sp, #40]
   805fc:	91000401 	add	x1, x0, #0x1
   80600:	f90017e1 	str	x1, [sp, #40]
   80604:	39400000 	ldrb	w0, [x0]
   80608:	5100c000 	sub	w0, w0, #0x30
   8060c:	0b000040 	add	w0, w2, w0
   80610:	b90027e0 	str	w0, [sp, #36]
   80614:	f94017e0 	ldr	x0, [sp, #40]
   80618:	39400000 	ldrb	w0, [x0]
   8061c:	97ffff7d 	bl	80410 <isdigit>
   80620:	12001c00 	and	w0, w0, #0xff
   80624:	7100001f 	cmp	w0, #0x0
   80628:	54fffdc1 	b.ne	805e0 <atoi+0x20>  // b.any
   8062c:	f9400fe0 	ldr	x0, [sp, #24]
   80630:	f94017e1 	ldr	x1, [sp, #40]
   80634:	f9000001 	str	x1, [x0]
   80638:	b94027e0 	ldr	w0, [sp, #36]
   8063c:	a8c37bfd 	ldp	x29, x30, [sp], #48
   80640:	d65f03c0 	ret

0000000000080644 <cprint_int>:
   80644:	a9b67bfd 	stp	x29, x30, [sp, #-160]!
   80648:	910003fd 	mov	x29, sp
   8064c:	f9001fe0 	str	x0, [sp, #56]
   80650:	f9001be1 	str	x1, [sp, #48]
   80654:	f90017e2 	str	x2, [sp, #40]
   80658:	b90027e3 	str	w3, [sp, #36]
   8065c:	b90023e4 	str	w4, [sp, #32]
   80660:	b9001fe5 	str	w5, [sp, #28]
   80664:	390063e6 	strb	w6, [sp, #24]
   80668:	90000040 	adrp	x0, 88000 <char_font_map+0x3108>
   8066c:	91028000 	add	x0, x0, #0xa0
   80670:	9101c3e2 	add	x2, sp, #0x70
   80674:	aa0003e3 	mov	x3, x0
   80678:	a9400460 	ldp	x0, x1, [x3]
   8067c:	a9000440 	stp	x0, x1, [x2]
   80680:	39404060 	ldrb	w0, [x3, #16]
   80684:	39004040 	strb	w0, [x2, #16]
   80688:	90000040 	adrp	x0, 88000 <char_font_map+0x3108>
   8068c:	9102e000 	add	x0, x0, #0xb8
   80690:	910163e2 	add	x2, sp, #0x58
   80694:	aa0003e3 	mov	x3, x0
   80698:	a9400460 	ldp	x0, x1, [x3]
   8069c:	a9000440 	stp	x0, x1, [x2]
   806a0:	39404060 	ldrb	w0, [x3, #16]
   806a4:	39004040 	strb	w0, [x2, #16]
   806a8:	394063e0 	ldrb	w0, [sp, #24]
   806ac:	121a0000 	and	w0, w0, #0x40
   806b0:	12001c00 	and	w0, w0, #0xff
   806b4:	7100001f 	cmp	w0, #0x0
   806b8:	54000060 	b.eq	806c4 <cprint_int+0x80>  // b.none
   806bc:	910163e0 	add	x0, sp, #0x58
   806c0:	14000002 	b	806c8 <cprint_int+0x84>
   806c4:	9101c3e0 	add	x0, sp, #0x70
   806c8:	f9004be0 	str	x0, [sp, #144]
   806cc:	b94027e0 	ldr	w0, [sp, #36]
   806d0:	7100201f 	cmp	w0, #0x8
   806d4:	540000e0 	b.eq	806f0 <cprint_int+0xac>  // b.none
   806d8:	b94027e0 	ldr	w0, [sp, #36]
   806dc:	7100281f 	cmp	w0, #0xa
   806e0:	54000080 	b.eq	806f0 <cprint_int+0xac>  // b.none
   806e4:	b94027e0 	ldr	w0, [sp, #36]
   806e8:	7100401f 	cmp	w0, #0x10
   806ec:	54001721 	b.ne	809d0 <cprint_int+0x38c>  // b.any
   806f0:	39027fff 	strb	wzr, [sp, #159]
   806f4:	394063e0 	ldrb	w0, [sp, #24]
   806f8:	121b0000 	and	w0, w0, #0x20
   806fc:	12001c00 	and	w0, w0, #0xff
   80700:	7100001f 	cmp	w0, #0x0
   80704:	54000160 	b.eq	80730 <cprint_int+0xec>  // b.none
   80708:	f94017e0 	ldr	x0, [sp, #40]
   8070c:	f90047e0 	str	x0, [sp, #136]
   80710:	f94047e0 	ldr	x0, [sp, #136]
   80714:	f100001f 	cmp	x0, #0x0
   80718:	540000ca 	b.ge	80730 <cprint_int+0xec>  // b.tcont
   8071c:	f94047e0 	ldr	x0, [sp, #136]
   80720:	cb0003e0 	neg	x0, x0
   80724:	f90017e0 	str	x0, [sp, #40]
   80728:	52800020 	mov	w0, #0x1                   	// #1
   8072c:	39027fe0 	strb	w0, [sp, #159]
   80730:	b9009bff 	str	wzr, [sp, #152]
   80734:	f94017e0 	ldr	x0, [sp, #40]
   80738:	f100001f 	cmp	x0, #0x0
   8073c:	54000361 	b.ne	807a8 <cprint_int+0x164>  // b.any
   80740:	b9409be0 	ldr	w0, [sp, #152]
   80744:	11000401 	add	w1, w0, #0x1
   80748:	b9009be1 	str	w1, [sp, #152]
   8074c:	93407c00 	sxtw	x0, w0
   80750:	910103e1 	add	x1, sp, #0x40
   80754:	52800602 	mov	w2, #0x30                  	// #48
   80758:	38206822 	strb	w2, [x1, x0]
   8075c:	14000013 	b	807a8 <cprint_int+0x164>
   80760:	b98027e1 	ldrsw	x1, [sp, #36]
   80764:	f94017e0 	ldr	x0, [sp, #40]
   80768:	9ac10802 	udiv	x2, x0, x1
   8076c:	9b017c41 	mul	x1, x2, x1
   80770:	cb010000 	sub	x0, x0, x1
   80774:	f9404be1 	ldr	x1, [sp, #144]
   80778:	8b000021 	add	x1, x1, x0
   8077c:	b9409be0 	ldr	w0, [sp, #152]
   80780:	11000402 	add	w2, w0, #0x1
   80784:	b9009be2 	str	w2, [sp, #152]
   80788:	39400022 	ldrb	w2, [x1]
   8078c:	93407c00 	sxtw	x0, w0
   80790:	910103e1 	add	x1, sp, #0x40
   80794:	38206822 	strb	w2, [x1, x0]
   80798:	b98027e0 	ldrsw	x0, [sp, #36]
   8079c:	f94017e1 	ldr	x1, [sp, #40]
   807a0:	9ac00820 	udiv	x0, x1, x0
   807a4:	f90017e0 	str	x0, [sp, #40]
   807a8:	f94017e0 	ldr	x0, [sp, #40]
   807ac:	f100001f 	cmp	x0, #0x0
   807b0:	54fffd81 	b.ne	80760 <cprint_int+0x11c>  // b.any
   807b4:	b9401fe1 	ldr	w1, [sp, #28]
   807b8:	b9409be0 	ldr	w0, [sp, #152]
   807bc:	6b00003f 	cmp	w1, w0
   807c0:	5400006a 	b.ge	807cc <cprint_int+0x188>  // b.tcont
   807c4:	b9409be0 	ldr	w0, [sp, #152]
   807c8:	b9001fe0 	str	w0, [sp, #28]
   807cc:	39427fe0 	ldrb	w0, [sp, #159]
   807d0:	7100001f 	cmp	w0, #0x0
   807d4:	540000c1 	b.ne	807ec <cprint_int+0x1a8>  // b.any
   807d8:	394063e0 	ldrb	w0, [sp, #24]
   807dc:	12000000 	and	w0, w0, #0x1
   807e0:	12001c00 	and	w0, w0, #0xff
   807e4:	7100001f 	cmp	w0, #0x0
   807e8:	54000080 	b.eq	807f8 <cprint_int+0x1b4>  // b.none
   807ec:	b94023e0 	ldr	w0, [sp, #32]
   807f0:	51000400 	sub	w0, w0, #0x1
   807f4:	b90023e0 	str	w0, [sp, #32]
   807f8:	394063e0 	ldrb	w0, [sp, #24]
   807fc:	121e0000 	and	w0, w0, #0x4
   80800:	12001c00 	and	w0, w0, #0xff
   80804:	7100001f 	cmp	w0, #0x0
   80808:	54000080 	b.eq	80818 <cprint_int+0x1d4>  // b.none
   8080c:	b94023e0 	ldr	w0, [sp, #32]
   80810:	51000800 	sub	w0, w0, #0x2
   80814:	b90023e0 	str	w0, [sp, #32]
   80818:	39427fe0 	ldrb	w0, [sp, #159]
   8081c:	7100001f 	cmp	w0, #0x0
   80820:	540000c0 	b.eq	80838 <cprint_int+0x1f4>  // b.none
   80824:	f9401fe2 	ldr	x2, [sp, #56]
   80828:	f9401be1 	ldr	x1, [sp, #48]
   8082c:	528005a0 	mov	w0, #0x2d                  	// #45
   80830:	d63f0040 	blr	x2
   80834:	14000011 	b	80878 <cprint_int+0x234>
   80838:	394063e0 	ldrb	w0, [sp, #24]
   8083c:	12000000 	and	w0, w0, #0x1
   80840:	12001c00 	and	w0, w0, #0xff
   80844:	7100001f 	cmp	w0, #0x0
   80848:	54000180 	b.eq	80878 <cprint_int+0x234>  // b.none
   8084c:	394063e0 	ldrb	w0, [sp, #24]
   80850:	121d0000 	and	w0, w0, #0x8
   80854:	12001c00 	and	w0, w0, #0xff
   80858:	7100001f 	cmp	w0, #0x0
   8085c:	54000060 	b.eq	80868 <cprint_int+0x224>  // b.none
   80860:	52800400 	mov	w0, #0x20                  	// #32
   80864:	14000002 	b	8086c <cprint_int+0x228>
   80868:	52800560 	mov	w0, #0x2b                  	// #43
   8086c:	f9401fe2 	ldr	x2, [sp, #56]
   80870:	f9401be1 	ldr	x1, [sp, #48]
   80874:	d63f0040 	blr	x2
   80878:	394063e0 	ldrb	w0, [sp, #24]
   8087c:	121e0000 	and	w0, w0, #0x4
   80880:	12001c00 	and	w0, w0, #0xff
   80884:	7100001f 	cmp	w0, #0x0
   80888:	54000120 	b.eq	808ac <cprint_int+0x268>  // b.none
   8088c:	f9401fe2 	ldr	x2, [sp, #56]
   80890:	f9401be1 	ldr	x1, [sp, #48]
   80894:	52800600 	mov	w0, #0x30                  	// #48
   80898:	d63f0040 	blr	x2
   8089c:	f9401fe2 	ldr	x2, [sp, #56]
   808a0:	f9401be1 	ldr	x1, [sp, #48]
   808a4:	52800f00 	mov	w0, #0x78                  	// #120
   808a8:	d63f0040 	blr	x2
   808ac:	f9400fe0 	ldr	x0, [sp, #24]
   808b0:	d3410400 	ubfx	x0, x0, #1, #1
   808b4:	12001c00 	and	w0, w0, #0xff
   808b8:	52000000 	eor	w0, w0, #0x1
   808bc:	12001c00 	and	w0, w0, #0xff
   808c0:	7100001f 	cmp	w0, #0x0
   808c4:	54000440 	b.eq	8094c <cprint_int+0x308>  // b.none
   808c8:	1400000c 	b	808f8 <cprint_int+0x2b4>
   808cc:	394063e0 	ldrb	w0, [sp, #24]
   808d0:	121c0000 	and	w0, w0, #0x10
   808d4:	12001c00 	and	w0, w0, #0xff
   808d8:	7100001f 	cmp	w0, #0x0
   808dc:	54000060 	b.eq	808e8 <cprint_int+0x2a4>  // b.none
   808e0:	52800600 	mov	w0, #0x30                  	// #48
   808e4:	14000002 	b	808ec <cprint_int+0x2a8>
   808e8:	52800400 	mov	w0, #0x20                  	// #32
   808ec:	f9401fe2 	ldr	x2, [sp, #56]
   808f0:	f9401be1 	ldr	x1, [sp, #48]
   808f4:	d63f0040 	blr	x2
   808f8:	b94023e0 	ldr	w0, [sp, #32]
   808fc:	51000401 	sub	w1, w0, #0x1
   80900:	b90023e1 	str	w1, [sp, #32]
   80904:	b9401fe1 	ldr	w1, [sp, #28]
   80908:	6b00003f 	cmp	w1, w0
   8090c:	54fffe0b 	b.lt	808cc <cprint_int+0x288>  // b.tstop
   80910:	1400000f 	b	8094c <cprint_int+0x308>
   80914:	394063e0 	ldrb	w0, [sp, #24]
   80918:	121c0000 	and	w0, w0, #0x10
   8091c:	12001c00 	and	w0, w0, #0xff
   80920:	7100001f 	cmp	w0, #0x0
   80924:	54000060 	b.eq	80930 <cprint_int+0x2ec>  // b.none
   80928:	52800600 	mov	w0, #0x30                  	// #48
   8092c:	14000002 	b	80934 <cprint_int+0x2f0>
   80930:	52800400 	mov	w0, #0x20                  	// #32
   80934:	f9401fe2 	ldr	x2, [sp, #56]
   80938:	f9401be1 	ldr	x1, [sp, #48]
   8093c:	d63f0040 	blr	x2
   80940:	b94023e0 	ldr	w0, [sp, #32]
   80944:	51000400 	sub	w0, w0, #0x1
   80948:	b90023e0 	str	w0, [sp, #32]
   8094c:	b9401fe0 	ldr	w0, [sp, #28]
   80950:	51000401 	sub	w1, w0, #0x1
   80954:	b9001fe1 	str	w1, [sp, #28]
   80958:	b9409be1 	ldr	w1, [sp, #152]
   8095c:	6b00003f 	cmp	w1, w0
   80960:	54fffdab 	b.lt	80914 <cprint_int+0x2d0>  // b.tstop
   80964:	1400000d 	b	80998 <cprint_int+0x354>
   80968:	b9409be0 	ldr	w0, [sp, #152]
   8096c:	51000400 	sub	w0, w0, #0x1
   80970:	b9009be0 	str	w0, [sp, #152]
   80974:	b9809be0 	ldrsw	x0, [sp, #152]
   80978:	910103e1 	add	x1, sp, #0x40
   8097c:	38606820 	ldrb	w0, [x1, x0]
   80980:	f9401fe2 	ldr	x2, [sp, #56]
   80984:	f9401be1 	ldr	x1, [sp, #48]
   80988:	d63f0040 	blr	x2
   8098c:	b94023e0 	ldr	w0, [sp, #32]
   80990:	51000400 	sub	w0, w0, #0x1
   80994:	b90023e0 	str	w0, [sp, #32]
   80998:	b9409be0 	ldr	w0, [sp, #152]
   8099c:	7100001f 	cmp	w0, #0x0
   809a0:	54fffe4c 	b.gt	80968 <cprint_int+0x324>
   809a4:	14000005 	b	809b8 <cprint_int+0x374>
   809a8:	f9401fe2 	ldr	x2, [sp, #56]
   809ac:	f9401be1 	ldr	x1, [sp, #48]
   809b0:	52800400 	mov	w0, #0x20                  	// #32
   809b4:	d63f0040 	blr	x2
   809b8:	b94023e0 	ldr	w0, [sp, #32]
   809bc:	51000401 	sub	w1, w0, #0x1
   809c0:	b90023e1 	str	w1, [sp, #32]
   809c4:	7100001f 	cmp	w0, #0x0
   809c8:	54ffff0c 	b.gt	809a8 <cprint_int+0x364>
   809cc:	14000002 	b	809d4 <cprint_int+0x390>
   809d0:	d503201f 	nop
   809d4:	a8ca7bfd 	ldp	x29, x30, [sp], #160
   809d8:	d65f03c0 	ret

00000000000809dc <buffer_add>:
   809dc:	d10043ff 	sub	sp, sp, #0x10
   809e0:	39003fe0 	strb	w0, [sp, #15]
   809e4:	f90003e1 	str	x1, [sp]
   809e8:	f94003e0 	ldr	x0, [sp]
   809ec:	f9400400 	ldr	x0, [x0, #8]
   809f0:	f100001f 	cmp	x0, #0x0
   809f4:	54000140 	b.eq	80a1c <buffer_add+0x40>  // b.none
   809f8:	f94003e0 	ldr	x0, [sp]
   809fc:	f9400000 	ldr	x0, [x0]
   80a00:	39403fe1 	ldrb	w1, [sp, #15]
   80a04:	39000001 	strb	w1, [x0]
   80a08:	f94003e0 	ldr	x0, [sp]
   80a0c:	f9400400 	ldr	x0, [x0, #8]
   80a10:	d1000401 	sub	x1, x0, #0x1
   80a14:	f94003e0 	ldr	x0, [sp]
   80a18:	f9000401 	str	x1, [x0, #8]
   80a1c:	f94003e0 	ldr	x0, [sp]
   80a20:	f9400000 	ldr	x0, [x0]
   80a24:	91000401 	add	x1, x0, #0x1
   80a28:	f94003e0 	ldr	x0, [sp]
   80a2c:	f9000001 	str	x1, [x0]
   80a30:	d503201f 	nop
   80a34:	910043ff 	add	sp, sp, #0x10
   80a38:	d65f03c0 	ret

0000000000080a3c <vcprintf>:
   80a3c:	a9b97bfd 	stp	x29, x30, [sp, #-112]!
   80a40:	910003fd 	mov	x29, sp
   80a44:	f9000bf3 	str	x19, [sp, #16]
   80a48:	f9001fe0 	str	x0, [sp, #56]
   80a4c:	f9001be1 	str	x1, [sp, #48]
   80a50:	f90017e2 	str	x2, [sp, #40]
   80a54:	aa0303f3 	mov	x19, x3
   80a58:	14000287 	b	81474 <vcprintf+0xa38>
   80a5c:	f94017e0 	ldr	x0, [sp, #40]
   80a60:	91000401 	add	x1, x0, #0x1
   80a64:	f90017e1 	str	x1, [sp, #40]
   80a68:	39400000 	ldrb	w0, [x0]
   80a6c:	7100941f 	cmp	w0, #0x25
   80a70:	54000100 	b.eq	80a90 <vcprintf+0x54>  // b.none
   80a74:	f94017e0 	ldr	x0, [sp, #40]
   80a78:	d1000400 	sub	x0, x0, #0x1
   80a7c:	39400000 	ldrb	w0, [x0]
   80a80:	f9401fe2 	ldr	x2, [sp, #56]
   80a84:	f9401be1 	ldr	x1, [sp, #48]
   80a88:	d63f0040 	blr	x2
   80a8c:	1400027a 	b	81474 <vcprintf+0xa38>
   80a90:	394123e0 	ldrb	w0, [sp, #72]
   80a94:	121f7800 	and	w0, w0, #0xfffffffe
   80a98:	390123e0 	strb	w0, [sp, #72]
   80a9c:	394123e0 	ldrb	w0, [sp, #72]
   80aa0:	121e7800 	and	w0, w0, #0xfffffffd
   80aa4:	390123e0 	strb	w0, [sp, #72]
   80aa8:	394123e0 	ldrb	w0, [sp, #72]
   80aac:	121d7800 	and	w0, w0, #0xfffffffb
   80ab0:	390123e0 	strb	w0, [sp, #72]
   80ab4:	394123e0 	ldrb	w0, [sp, #72]
   80ab8:	121c7800 	and	w0, w0, #0xfffffff7
   80abc:	390123e0 	strb	w0, [sp, #72]
   80ac0:	394123e0 	ldrb	w0, [sp, #72]
   80ac4:	121b7800 	and	w0, w0, #0xffffffef
   80ac8:	390123e0 	strb	w0, [sp, #72]
   80acc:	394123e0 	ldrb	w0, [sp, #72]
   80ad0:	121a7800 	and	w0, w0, #0xffffffdf
   80ad4:	390123e0 	strb	w0, [sp, #72]
   80ad8:	394123e0 	ldrb	w0, [sp, #72]
   80adc:	12197800 	and	w0, w0, #0xffffffbf
   80ae0:	390123e0 	strb	w0, [sp, #72]
   80ae4:	f94017e0 	ldr	x0, [sp, #40]
   80ae8:	91000401 	add	x1, x0, #0x1
   80aec:	f90017e1 	str	x1, [sp, #40]
   80af0:	39400000 	ldrb	w0, [x0]
   80af4:	7100c01f 	cmp	w0, #0x30
   80af8:	54000400 	b.eq	80b78 <vcprintf+0x13c>  // b.none
   80afc:	7100c01f 	cmp	w0, #0x30
   80b00:	5400044c 	b.gt	80b88 <vcprintf+0x14c>
   80b04:	7100b41f 	cmp	w0, #0x2d
   80b08:	54000200 	b.eq	80b48 <vcprintf+0x10c>  // b.none
   80b0c:	7100b41f 	cmp	w0, #0x2d
   80b10:	540003cc 	b.gt	80b88 <vcprintf+0x14c>
   80b14:	7100ac1f 	cmp	w0, #0x2b
   80b18:	54000100 	b.eq	80b38 <vcprintf+0xfc>  // b.none
   80b1c:	7100ac1f 	cmp	w0, #0x2b
   80b20:	5400034c 	b.gt	80b88 <vcprintf+0x14c>
   80b24:	7100801f 	cmp	w0, #0x20
   80b28:	54000200 	b.eq	80b68 <vcprintf+0x12c>  // b.none
   80b2c:	71008c1f 	cmp	w0, #0x23
   80b30:	54000140 	b.eq	80b58 <vcprintf+0x11c>  // b.none
   80b34:	14000015 	b	80b88 <vcprintf+0x14c>
   80b38:	394123e0 	ldrb	w0, [sp, #72]
   80b3c:	32000000 	orr	w0, w0, #0x1
   80b40:	390123e0 	strb	w0, [sp, #72]
   80b44:	17ffffe8 	b	80ae4 <vcprintf+0xa8>
   80b48:	394123e0 	ldrb	w0, [sp, #72]
   80b4c:	321f0000 	orr	w0, w0, #0x2
   80b50:	390123e0 	strb	w0, [sp, #72]
   80b54:	17ffffe4 	b	80ae4 <vcprintf+0xa8>
   80b58:	394123e0 	ldrb	w0, [sp, #72]
   80b5c:	321e0000 	orr	w0, w0, #0x4
   80b60:	390123e0 	strb	w0, [sp, #72]
   80b64:	17ffffe0 	b	80ae4 <vcprintf+0xa8>
   80b68:	394123e0 	ldrb	w0, [sp, #72]
   80b6c:	321d0000 	orr	w0, w0, #0x8
   80b70:	390123e0 	strb	w0, [sp, #72]
   80b74:	17ffffdc 	b	80ae4 <vcprintf+0xa8>
   80b78:	394123e0 	ldrb	w0, [sp, #72]
   80b7c:	321c0000 	orr	w0, w0, #0x10
   80b80:	390123e0 	strb	w0, [sp, #72]
   80b84:	17ffffd8 	b	80ae4 <vcprintf+0xa8>
   80b88:	f94017e0 	ldr	x0, [sp, #40]
   80b8c:	d1000400 	sub	x0, x0, #0x1
   80b90:	f90017e0 	str	x0, [sp, #40]
   80b94:	b9006fff 	str	wzr, [sp, #108]
   80b98:	f94017e0 	ldr	x0, [sp, #40]
   80b9c:	39400000 	ldrb	w0, [x0]
   80ba0:	7100a81f 	cmp	w0, #0x2a
   80ba4:	540003e1 	b.ne	80c20 <vcprintf+0x1e4>  // b.any
   80ba8:	f94017e0 	ldr	x0, [sp, #40]
   80bac:	91000400 	add	x0, x0, #0x1
   80bb0:	f90017e0 	str	x0, [sp, #40]
   80bb4:	b9401a61 	ldr	w1, [x19, #24]
   80bb8:	f9400260 	ldr	x0, [x19]
   80bbc:	7100003f 	cmp	w1, #0x0
   80bc0:	540000ab 	b.lt	80bd4 <vcprintf+0x198>  // b.tstop
   80bc4:	91002c01 	add	x1, x0, #0xb
   80bc8:	927df021 	and	x1, x1, #0xfffffffffffffff8
   80bcc:	f9000261 	str	x1, [x19]
   80bd0:	1400000d 	b	80c04 <vcprintf+0x1c8>
   80bd4:	11002022 	add	w2, w1, #0x8
   80bd8:	b9001a62 	str	w2, [x19, #24]
   80bdc:	b9401a62 	ldr	w2, [x19, #24]
   80be0:	7100005f 	cmp	w2, #0x0
   80be4:	540000ad 	b.le	80bf8 <vcprintf+0x1bc>
   80be8:	91002c01 	add	x1, x0, #0xb
   80bec:	927df021 	and	x1, x1, #0xfffffffffffffff8
   80bf0:	f9000261 	str	x1, [x19]
   80bf4:	14000004 	b	80c04 <vcprintf+0x1c8>
   80bf8:	f9400662 	ldr	x2, [x19, #8]
   80bfc:	93407c20 	sxtw	x0, w1
   80c00:	8b000040 	add	x0, x2, x0
   80c04:	b9400000 	ldr	w0, [x0]
   80c08:	b9006fe0 	str	w0, [sp, #108]
   80c0c:	b9406fe0 	ldr	w0, [sp, #108]
   80c10:	7100001f 	cmp	w0, #0x0
   80c14:	5400018a 	b.ge	80c44 <vcprintf+0x208>  // b.tcont
   80c18:	b9006fff 	str	wzr, [sp, #108]
   80c1c:	1400000a 	b	80c44 <vcprintf+0x208>
   80c20:	f94017e0 	ldr	x0, [sp, #40]
   80c24:	39400000 	ldrb	w0, [x0]
   80c28:	97fffdfa 	bl	80410 <isdigit>
   80c2c:	12001c00 	and	w0, w0, #0xff
   80c30:	7100001f 	cmp	w0, #0x0
   80c34:	54000080 	b.eq	80c44 <vcprintf+0x208>  // b.none
   80c38:	9100a3e0 	add	x0, sp, #0x28
   80c3c:	97fffe61 	bl	805c0 <atoi>
   80c40:	b9006fe0 	str	w0, [sp, #108]
   80c44:	12800000 	mov	w0, #0xffffffff            	// #-1
   80c48:	b9006be0 	str	w0, [sp, #104]
   80c4c:	f94017e0 	ldr	x0, [sp, #40]
   80c50:	39400000 	ldrb	w0, [x0]
   80c54:	7100b81f 	cmp	w0, #0x2e
   80c58:	54000521 	b.ne	80cfc <vcprintf+0x2c0>  // b.any
   80c5c:	f94017e0 	ldr	x0, [sp, #40]
   80c60:	91000400 	add	x0, x0, #0x1
   80c64:	f90017e0 	str	x0, [sp, #40]
   80c68:	f94017e0 	ldr	x0, [sp, #40]
   80c6c:	39400000 	ldrb	w0, [x0]
   80c70:	7100a81f 	cmp	w0, #0x2a
   80c74:	540003e1 	b.ne	80cf0 <vcprintf+0x2b4>  // b.any
   80c78:	f94017e0 	ldr	x0, [sp, #40]
   80c7c:	91000400 	add	x0, x0, #0x1
   80c80:	f90017e0 	str	x0, [sp, #40]
   80c84:	b9401a61 	ldr	w1, [x19, #24]
   80c88:	f9400260 	ldr	x0, [x19]
   80c8c:	7100003f 	cmp	w1, #0x0
   80c90:	540000ab 	b.lt	80ca4 <vcprintf+0x268>  // b.tstop
   80c94:	91002c01 	add	x1, x0, #0xb
   80c98:	927df021 	and	x1, x1, #0xfffffffffffffff8
   80c9c:	f9000261 	str	x1, [x19]
   80ca0:	1400000d 	b	80cd4 <vcprintf+0x298>
   80ca4:	11002022 	add	w2, w1, #0x8
   80ca8:	b9001a62 	str	w2, [x19, #24]
   80cac:	b9401a62 	ldr	w2, [x19, #24]
   80cb0:	7100005f 	cmp	w2, #0x0
   80cb4:	540000ad 	b.le	80cc8 <vcprintf+0x28c>
   80cb8:	91002c01 	add	x1, x0, #0xb
   80cbc:	927df021 	and	x1, x1, #0xfffffffffffffff8
   80cc0:	f9000261 	str	x1, [x19]
   80cc4:	14000004 	b	80cd4 <vcprintf+0x298>
   80cc8:	f9400662 	ldr	x2, [x19, #8]
   80ccc:	93407c20 	sxtw	x0, w1
   80cd0:	8b000040 	add	x0, x2, x0
   80cd4:	b9400000 	ldr	w0, [x0]
   80cd8:	b9006be0 	str	w0, [sp, #104]
   80cdc:	b9406be0 	ldr	w0, [sp, #104]
   80ce0:	7100001f 	cmp	w0, #0x0
   80ce4:	540000ca 	b.ge	80cfc <vcprintf+0x2c0>  // b.tcont
   80ce8:	b9006bff 	str	wzr, [sp, #104]
   80cec:	14000004 	b	80cfc <vcprintf+0x2c0>
   80cf0:	9100a3e0 	add	x0, sp, #0x28
   80cf4:	97fffe33 	bl	805c0 <atoi>
   80cf8:	b9006be0 	str	w0, [sp, #104]
   80cfc:	52800080 	mov	w0, #0x4                   	// #4
   80d00:	b90067e0 	str	w0, [sp, #100]
   80d04:	f94017e0 	ldr	x0, [sp, #40]
   80d08:	91000401 	add	x1, x0, #0x1
   80d0c:	f90017e1 	str	x1, [sp, #40]
   80d10:	39400000 	ldrb	w0, [x0]
   80d14:	7101e81f 	cmp	w0, #0x7a
   80d18:	540004c0 	b.eq	80db0 <vcprintf+0x374>  // b.none
   80d1c:	7101e81f 	cmp	w0, #0x7a
   80d20:	5400054c 	b.gt	80dc8 <vcprintf+0x38c>
   80d24:	7101d01f 	cmp	w0, #0x74
   80d28:	540004a0 	b.eq	80dbc <vcprintf+0x380>  // b.none
   80d2c:	7101d01f 	cmp	w0, #0x74
   80d30:	540004cc 	b.gt	80dc8 <vcprintf+0x38c>
   80d34:	7101a01f 	cmp	w0, #0x68
   80d38:	54000080 	b.eq	80d48 <vcprintf+0x30c>  // b.none
   80d3c:	7101b01f 	cmp	w0, #0x6c
   80d40:	540001e0 	b.eq	80d7c <vcprintf+0x340>  // b.none
   80d44:	14000021 	b	80dc8 <vcprintf+0x38c>
   80d48:	f94017e0 	ldr	x0, [sp, #40]
   80d4c:	39400000 	ldrb	w0, [x0]
   80d50:	7101a01f 	cmp	w0, #0x68
   80d54:	540000e1 	b.ne	80d70 <vcprintf+0x334>  // b.any
   80d58:	f94017e0 	ldr	x0, [sp, #40]
   80d5c:	91000400 	add	x0, x0, #0x1
   80d60:	f90017e0 	str	x0, [sp, #40]
   80d64:	52800020 	mov	w0, #0x1                   	// #1
   80d68:	b90067e0 	str	w0, [sp, #100]
   80d6c:	1400001a 	b	80dd4 <vcprintf+0x398>
   80d70:	52800040 	mov	w0, #0x2                   	// #2
   80d74:	b90067e0 	str	w0, [sp, #100]
   80d78:	14000017 	b	80dd4 <vcprintf+0x398>
   80d7c:	f94017e0 	ldr	x0, [sp, #40]
   80d80:	39400000 	ldrb	w0, [x0]
   80d84:	7101b01f 	cmp	w0, #0x6c
   80d88:	540000e1 	b.ne	80da4 <vcprintf+0x368>  // b.any
   80d8c:	f94017e0 	ldr	x0, [sp, #40]
   80d90:	91000400 	add	x0, x0, #0x1
   80d94:	f90017e0 	str	x0, [sp, #40]
   80d98:	52800100 	mov	w0, #0x8                   	// #8
   80d9c:	b90067e0 	str	w0, [sp, #100]
   80da0:	1400000d 	b	80dd4 <vcprintf+0x398>
   80da4:	52800100 	mov	w0, #0x8                   	// #8
   80da8:	b90067e0 	str	w0, [sp, #100]
   80dac:	1400000a 	b	80dd4 <vcprintf+0x398>
   80db0:	52800100 	mov	w0, #0x8                   	// #8
   80db4:	b90067e0 	str	w0, [sp, #100]
   80db8:	14000007 	b	80dd4 <vcprintf+0x398>
   80dbc:	52800100 	mov	w0, #0x8                   	// #8
   80dc0:	b90067e0 	str	w0, [sp, #100]
   80dc4:	14000004 	b	80dd4 <vcprintf+0x398>
   80dc8:	f94017e0 	ldr	x0, [sp, #40]
   80dcc:	d1000400 	sub	x0, x0, #0x1
   80dd0:	f90017e0 	str	x0, [sp, #40]
   80dd4:	52800140 	mov	w0, #0xa                   	// #10
   80dd8:	b90063e0 	str	w0, [sp, #96]
   80ddc:	f9002fff 	str	xzr, [sp, #88]
   80de0:	f94017e0 	ldr	x0, [sp, #40]
   80de4:	91000401 	add	x1, x0, #0x1
   80de8:	f90017e1 	str	x1, [sp, #40]
   80dec:	39400000 	ldrb	w0, [x0]
   80df0:	7101e01f 	cmp	w0, #0x78
   80df4:	540015e0 	b.eq	810b0 <vcprintf+0x674>  // b.none
   80df8:	7101e01f 	cmp	w0, #0x78
   80dfc:	5400322c 	b.gt	81440 <vcprintf+0xa04>
   80e00:	7101d41f 	cmp	w0, #0x75
   80e04:	54001660 	b.eq	810d0 <vcprintf+0x694>  // b.none
   80e08:	7101d41f 	cmp	w0, #0x75
   80e0c:	540031ac 	b.gt	81440 <vcprintf+0xa04>
   80e10:	7101cc1f 	cmp	w0, #0x73
   80e14:	54002940 	b.eq	8133c <vcprintf+0x900>  // b.none
   80e18:	7101cc1f 	cmp	w0, #0x73
   80e1c:	5400312c 	b.gt	81440 <vcprintf+0xa04>
   80e20:	7101c01f 	cmp	w0, #0x70
   80e24:	54001300 	b.eq	81084 <vcprintf+0x648>  // b.none
   80e28:	7101c01f 	cmp	w0, #0x70
   80e2c:	540030ac 	b.gt	81440 <vcprintf+0xa04>
   80e30:	7101a41f 	cmp	w0, #0x69
   80e34:	54000200 	b.eq	80e74 <vcprintf+0x438>  // b.none
   80e38:	7101a41f 	cmp	w0, #0x69
   80e3c:	5400302c 	b.gt	81440 <vcprintf+0xa04>
   80e40:	7101901f 	cmp	w0, #0x64
   80e44:	54000180 	b.eq	80e74 <vcprintf+0x438>  // b.none
   80e48:	7101901f 	cmp	w0, #0x64
   80e4c:	54002fac 	b.gt	81440 <vcprintf+0xa04>
   80e50:	71018c1f 	cmp	w0, #0x63
   80e54:	54002400 	b.eq	812d4 <vcprintf+0x898>  // b.none
   80e58:	71018c1f 	cmp	w0, #0x63
   80e5c:	54002f2c 	b.gt	81440 <vcprintf+0xa04>
   80e60:	7100941f 	cmp	w0, #0x25
   80e64:	54002dc0 	b.eq	8141c <vcprintf+0x9e0>  // b.none
   80e68:	7101601f 	cmp	w0, #0x58
   80e6c:	540011c0 	b.eq	810a4 <vcprintf+0x668>  // b.none
   80e70:	14000170 	b	81430 <vcprintf+0x9f4>
   80e74:	b94067e0 	ldr	w0, [sp, #100]
   80e78:	7100201f 	cmp	w0, #0x8
   80e7c:	54000b60 	b.eq	80fe8 <vcprintf+0x5ac>  // b.none
   80e80:	b94067e0 	ldr	w0, [sp, #100]
   80e84:	7100201f 	cmp	w0, #0x8
   80e88:	54000dec 	b.gt	81044 <vcprintf+0x608>
   80e8c:	b94067e0 	ldr	w0, [sp, #100]
   80e90:	7100101f 	cmp	w0, #0x4
   80e94:	540007a0 	b.eq	80f88 <vcprintf+0x54c>  // b.none
   80e98:	b94067e0 	ldr	w0, [sp, #100]
   80e9c:	7100101f 	cmp	w0, #0x4
   80ea0:	54000d2c 	b.gt	81044 <vcprintf+0x608>
   80ea4:	b94067e0 	ldr	w0, [sp, #100]
   80ea8:	7100041f 	cmp	w0, #0x1
   80eac:	540000a0 	b.eq	80ec0 <vcprintf+0x484>  // b.none
   80eb0:	b94067e0 	ldr	w0, [sp, #100]
   80eb4:	7100081f 	cmp	w0, #0x2
   80eb8:	54000360 	b.eq	80f24 <vcprintf+0x4e8>  // b.none
   80ebc:	14000062 	b	81044 <vcprintf+0x608>
   80ec0:	b9401a61 	ldr	w1, [x19, #24]
   80ec4:	f9400260 	ldr	x0, [x19]
   80ec8:	7100003f 	cmp	w1, #0x0
   80ecc:	540000ab 	b.lt	80ee0 <vcprintf+0x4a4>  // b.tstop
   80ed0:	91002c01 	add	x1, x0, #0xb
   80ed4:	927df021 	and	x1, x1, #0xfffffffffffffff8
   80ed8:	f9000261 	str	x1, [x19]
   80edc:	1400000d 	b	80f10 <vcprintf+0x4d4>
   80ee0:	11002022 	add	w2, w1, #0x8
   80ee4:	b9001a62 	str	w2, [x19, #24]
   80ee8:	b9401a62 	ldr	w2, [x19, #24]
   80eec:	7100005f 	cmp	w2, #0x0
   80ef0:	540000ad 	b.le	80f04 <vcprintf+0x4c8>
   80ef4:	91002c01 	add	x1, x0, #0xb
   80ef8:	927df021 	and	x1, x1, #0xfffffffffffffff8
   80efc:	f9000261 	str	x1, [x19]
   80f00:	14000004 	b	80f10 <vcprintf+0x4d4>
   80f04:	f9400662 	ldr	x2, [x19, #8]
   80f08:	93407c20 	sxtw	x0, w1
   80f0c:	8b000040 	add	x0, x2, x0
   80f10:	b9400000 	ldr	w0, [x0]
   80f14:	13001c00 	sxtb	w0, w0
   80f18:	93401c00 	sxtb	x0, w0
   80f1c:	f9002fe0 	str	x0, [sp, #88]
   80f20:	14000049 	b	81044 <vcprintf+0x608>
   80f24:	b9401a61 	ldr	w1, [x19, #24]
   80f28:	f9400260 	ldr	x0, [x19]
   80f2c:	7100003f 	cmp	w1, #0x0
   80f30:	540000ab 	b.lt	80f44 <vcprintf+0x508>  // b.tstop
   80f34:	91002c01 	add	x1, x0, #0xb
   80f38:	927df021 	and	x1, x1, #0xfffffffffffffff8
   80f3c:	f9000261 	str	x1, [x19]
   80f40:	1400000d 	b	80f74 <vcprintf+0x538>
   80f44:	11002022 	add	w2, w1, #0x8
   80f48:	b9001a62 	str	w2, [x19, #24]
   80f4c:	b9401a62 	ldr	w2, [x19, #24]
   80f50:	7100005f 	cmp	w2, #0x0
   80f54:	540000ad 	b.le	80f68 <vcprintf+0x52c>
   80f58:	91002c01 	add	x1, x0, #0xb
   80f5c:	927df021 	and	x1, x1, #0xfffffffffffffff8
   80f60:	f9000261 	str	x1, [x19]
   80f64:	14000004 	b	80f74 <vcprintf+0x538>
   80f68:	f9400662 	ldr	x2, [x19, #8]
   80f6c:	93407c20 	sxtw	x0, w1
   80f70:	8b000040 	add	x0, x2, x0
   80f74:	b9400000 	ldr	w0, [x0]
   80f78:	13003c00 	sxth	w0, w0
   80f7c:	93403c00 	sxth	x0, w0
   80f80:	f9002fe0 	str	x0, [sp, #88]
   80f84:	14000030 	b	81044 <vcprintf+0x608>
   80f88:	b9401a61 	ldr	w1, [x19, #24]
   80f8c:	f9400260 	ldr	x0, [x19]
   80f90:	7100003f 	cmp	w1, #0x0
   80f94:	540000ab 	b.lt	80fa8 <vcprintf+0x56c>  // b.tstop
   80f98:	91002c01 	add	x1, x0, #0xb
   80f9c:	927df021 	and	x1, x1, #0xfffffffffffffff8
   80fa0:	f9000261 	str	x1, [x19]
   80fa4:	1400000d 	b	80fd8 <vcprintf+0x59c>
   80fa8:	11002022 	add	w2, w1, #0x8
   80fac:	b9001a62 	str	w2, [x19, #24]
   80fb0:	b9401a62 	ldr	w2, [x19, #24]
   80fb4:	7100005f 	cmp	w2, #0x0
   80fb8:	540000ad 	b.le	80fcc <vcprintf+0x590>
   80fbc:	91002c01 	add	x1, x0, #0xb
   80fc0:	927df021 	and	x1, x1, #0xfffffffffffffff8
   80fc4:	f9000261 	str	x1, [x19]
   80fc8:	14000004 	b	80fd8 <vcprintf+0x59c>
   80fcc:	f9400662 	ldr	x2, [x19, #8]
   80fd0:	93407c20 	sxtw	x0, w1
   80fd4:	8b000040 	add	x0, x2, x0
   80fd8:	b9400000 	ldr	w0, [x0]
   80fdc:	93407c00 	sxtw	x0, w0
   80fe0:	f9002fe0 	str	x0, [sp, #88]
   80fe4:	14000018 	b	81044 <vcprintf+0x608>
   80fe8:	b9401a61 	ldr	w1, [x19, #24]
   80fec:	f9400260 	ldr	x0, [x19]
   80ff0:	7100003f 	cmp	w1, #0x0
   80ff4:	540000ab 	b.lt	81008 <vcprintf+0x5cc>  // b.tstop
   80ff8:	91003c01 	add	x1, x0, #0xf
   80ffc:	927df021 	and	x1, x1, #0xfffffffffffffff8
   81000:	f9000261 	str	x1, [x19]
   81004:	1400000d 	b	81038 <vcprintf+0x5fc>
   81008:	11002022 	add	w2, w1, #0x8
   8100c:	b9001a62 	str	w2, [x19, #24]
   81010:	b9401a62 	ldr	w2, [x19, #24]
   81014:	7100005f 	cmp	w2, #0x0
   81018:	540000ad 	b.le	8102c <vcprintf+0x5f0>
   8101c:	91003c01 	add	x1, x0, #0xf
   81020:	927df021 	and	x1, x1, #0xfffffffffffffff8
   81024:	f9000261 	str	x1, [x19]
   81028:	14000004 	b	81038 <vcprintf+0x5fc>
   8102c:	f9400662 	ldr	x2, [x19, #8]
   81030:	93407c20 	sxtw	x0, w1
   81034:	8b000040 	add	x0, x2, x0
   81038:	f9400000 	ldr	x0, [x0]
   8103c:	f9002fe0 	str	x0, [sp, #88]
   81040:	d503201f 	nop
   81044:	394123e0 	ldrb	w0, [sp, #72]
   81048:	321b0000 	orr	w0, w0, #0x20
   8104c:	390123e0 	strb	w0, [sp, #72]
   81050:	b9406be0 	ldr	w0, [sp, #104]
   81054:	3100041f 	cmn	w0, #0x1
   81058:	54000041 	b.ne	81060 <vcprintf+0x624>  // b.any
   8105c:	b9006bff 	str	wzr, [sp, #104]
   81060:	394123e6 	ldrb	w6, [sp, #72]
   81064:	b9406be5 	ldr	w5, [sp, #104]
   81068:	b9406fe4 	ldr	w4, [sp, #108]
   8106c:	b94063e3 	ldr	w3, [sp, #96]
   81070:	f9402fe2 	ldr	x2, [sp, #88]
   81074:	f9401be1 	ldr	x1, [sp, #48]
   81078:	f9401fe0 	ldr	x0, [sp, #56]
   8107c:	97fffd72 	bl	80644 <cprint_int>
   81080:	140000fd 	b	81474 <vcprintf+0xa38>
   81084:	394123e0 	ldrb	w0, [sp, #72]
   81088:	321e0000 	orr	w0, w0, #0x4
   8108c:	390123e0 	strb	w0, [sp, #72]
   81090:	b9406be0 	ldr	w0, [sp, #104]
   81094:	3100041f 	cmn	w0, #0x1
   81098:	54000061 	b.ne	810a4 <vcprintf+0x668>  // b.any
   8109c:	52800200 	mov	w0, #0x10                  	// #16
   810a0:	b9006be0 	str	w0, [sp, #104]
   810a4:	394123e0 	ldrb	w0, [sp, #72]
   810a8:	321a0000 	orr	w0, w0, #0x40
   810ac:	390123e0 	strb	w0, [sp, #72]
   810b0:	52800200 	mov	w0, #0x10                  	// #16
   810b4:	b90063e0 	str	w0, [sp, #96]
   810b8:	394123e0 	ldrb	w0, [sp, #72]
   810bc:	121c7800 	and	w0, w0, #0xfffffff7
   810c0:	390123e0 	strb	w0, [sp, #72]
   810c4:	394123e0 	ldrb	w0, [sp, #72]
   810c8:	321c0000 	orr	w0, w0, #0x10
   810cc:	390123e0 	strb	w0, [sp, #72]
   810d0:	b94067e0 	ldr	w0, [sp, #100]
   810d4:	7100201f 	cmp	w0, #0x8
   810d8:	54000b60 	b.eq	81244 <vcprintf+0x808>  // b.none
   810dc:	b94067e0 	ldr	w0, [sp, #100]
   810e0:	7100201f 	cmp	w0, #0x8
   810e4:	54000dec 	b.gt	812a0 <vcprintf+0x864>
   810e8:	b94067e0 	ldr	w0, [sp, #100]
   810ec:	7100101f 	cmp	w0, #0x4
   810f0:	540007a0 	b.eq	811e4 <vcprintf+0x7a8>  // b.none
   810f4:	b94067e0 	ldr	w0, [sp, #100]
   810f8:	7100101f 	cmp	w0, #0x4
   810fc:	54000d2c 	b.gt	812a0 <vcprintf+0x864>
   81100:	b94067e0 	ldr	w0, [sp, #100]
   81104:	7100041f 	cmp	w0, #0x1
   81108:	540000a0 	b.eq	8111c <vcprintf+0x6e0>  // b.none
   8110c:	b94067e0 	ldr	w0, [sp, #100]
   81110:	7100081f 	cmp	w0, #0x2
   81114:	54000360 	b.eq	81180 <vcprintf+0x744>  // b.none
   81118:	14000062 	b	812a0 <vcprintf+0x864>
   8111c:	b9401a61 	ldr	w1, [x19, #24]
   81120:	f9400260 	ldr	x0, [x19]
   81124:	7100003f 	cmp	w1, #0x0
   81128:	540000ab 	b.lt	8113c <vcprintf+0x700>  // b.tstop
   8112c:	91002c01 	add	x1, x0, #0xb
   81130:	927df021 	and	x1, x1, #0xfffffffffffffff8
   81134:	f9000261 	str	x1, [x19]
   81138:	1400000d 	b	8116c <vcprintf+0x730>
   8113c:	11002022 	add	w2, w1, #0x8
   81140:	b9001a62 	str	w2, [x19, #24]
   81144:	b9401a62 	ldr	w2, [x19, #24]
   81148:	7100005f 	cmp	w2, #0x0
   8114c:	540000ad 	b.le	81160 <vcprintf+0x724>
   81150:	91002c01 	add	x1, x0, #0xb
   81154:	927df021 	and	x1, x1, #0xfffffffffffffff8
   81158:	f9000261 	str	x1, [x19]
   8115c:	14000004 	b	8116c <vcprintf+0x730>
   81160:	f9400662 	ldr	x2, [x19, #8]
   81164:	93407c20 	sxtw	x0, w1
   81168:	8b000040 	add	x0, x2, x0
   8116c:	b9400000 	ldr	w0, [x0]
   81170:	12001c00 	and	w0, w0, #0xff
   81174:	92401c00 	and	x0, x0, #0xff
   81178:	f9002fe0 	str	x0, [sp, #88]
   8117c:	14000049 	b	812a0 <vcprintf+0x864>
   81180:	b9401a61 	ldr	w1, [x19, #24]
   81184:	f9400260 	ldr	x0, [x19]
   81188:	7100003f 	cmp	w1, #0x0
   8118c:	540000ab 	b.lt	811a0 <vcprintf+0x764>  // b.tstop
   81190:	91002c01 	add	x1, x0, #0xb
   81194:	927df021 	and	x1, x1, #0xfffffffffffffff8
   81198:	f9000261 	str	x1, [x19]
   8119c:	1400000d 	b	811d0 <vcprintf+0x794>
   811a0:	11002022 	add	w2, w1, #0x8
   811a4:	b9001a62 	str	w2, [x19, #24]
   811a8:	b9401a62 	ldr	w2, [x19, #24]
   811ac:	7100005f 	cmp	w2, #0x0
   811b0:	540000ad 	b.le	811c4 <vcprintf+0x788>
   811b4:	91002c01 	add	x1, x0, #0xb
   811b8:	927df021 	and	x1, x1, #0xfffffffffffffff8
   811bc:	f9000261 	str	x1, [x19]
   811c0:	14000004 	b	811d0 <vcprintf+0x794>
   811c4:	f9400662 	ldr	x2, [x19, #8]
   811c8:	93407c20 	sxtw	x0, w1
   811cc:	8b000040 	add	x0, x2, x0
   811d0:	b9400000 	ldr	w0, [x0]
   811d4:	12003c00 	and	w0, w0, #0xffff
   811d8:	92403c00 	and	x0, x0, #0xffff
   811dc:	f9002fe0 	str	x0, [sp, #88]
   811e0:	14000030 	b	812a0 <vcprintf+0x864>
   811e4:	b9401a61 	ldr	w1, [x19, #24]
   811e8:	f9400260 	ldr	x0, [x19]
   811ec:	7100003f 	cmp	w1, #0x0
   811f0:	540000ab 	b.lt	81204 <vcprintf+0x7c8>  // b.tstop
   811f4:	91002c01 	add	x1, x0, #0xb
   811f8:	927df021 	and	x1, x1, #0xfffffffffffffff8
   811fc:	f9000261 	str	x1, [x19]
   81200:	1400000d 	b	81234 <vcprintf+0x7f8>
   81204:	11002022 	add	w2, w1, #0x8
   81208:	b9001a62 	str	w2, [x19, #24]
   8120c:	b9401a62 	ldr	w2, [x19, #24]
   81210:	7100005f 	cmp	w2, #0x0
   81214:	540000ad 	b.le	81228 <vcprintf+0x7ec>
   81218:	91002c01 	add	x1, x0, #0xb
   8121c:	927df021 	and	x1, x1, #0xfffffffffffffff8
   81220:	f9000261 	str	x1, [x19]
   81224:	14000004 	b	81234 <vcprintf+0x7f8>
   81228:	f9400662 	ldr	x2, [x19, #8]
   8122c:	93407c20 	sxtw	x0, w1
   81230:	8b000040 	add	x0, x2, x0
   81234:	b9400000 	ldr	w0, [x0]
   81238:	2a0003e0 	mov	w0, w0
   8123c:	f9002fe0 	str	x0, [sp, #88]
   81240:	14000018 	b	812a0 <vcprintf+0x864>
   81244:	b9401a61 	ldr	w1, [x19, #24]
   81248:	f9400260 	ldr	x0, [x19]
   8124c:	7100003f 	cmp	w1, #0x0
   81250:	540000ab 	b.lt	81264 <vcprintf+0x828>  // b.tstop
   81254:	91003c01 	add	x1, x0, #0xf
   81258:	927df021 	and	x1, x1, #0xfffffffffffffff8
   8125c:	f9000261 	str	x1, [x19]
   81260:	1400000d 	b	81294 <vcprintf+0x858>
   81264:	11002022 	add	w2, w1, #0x8
   81268:	b9001a62 	str	w2, [x19, #24]
   8126c:	b9401a62 	ldr	w2, [x19, #24]
   81270:	7100005f 	cmp	w2, #0x0
   81274:	540000ad 	b.le	81288 <vcprintf+0x84c>
   81278:	91003c01 	add	x1, x0, #0xf
   8127c:	927df021 	and	x1, x1, #0xfffffffffffffff8
   81280:	f9000261 	str	x1, [x19]
   81284:	14000004 	b	81294 <vcprintf+0x858>
   81288:	f9400662 	ldr	x2, [x19, #8]
   8128c:	93407c20 	sxtw	x0, w1
   81290:	8b000040 	add	x0, x2, x0
   81294:	f9400000 	ldr	x0, [x0]
   81298:	f9002fe0 	str	x0, [sp, #88]
   8129c:	d503201f 	nop
   812a0:	b9406be0 	ldr	w0, [sp, #104]
   812a4:	3100041f 	cmn	w0, #0x1
   812a8:	54000041 	b.ne	812b0 <vcprintf+0x874>  // b.any
   812ac:	b9006bff 	str	wzr, [sp, #104]
   812b0:	394123e6 	ldrb	w6, [sp, #72]
   812b4:	b9406be5 	ldr	w5, [sp, #104]
   812b8:	b9406fe4 	ldr	w4, [sp, #108]
   812bc:	b94063e3 	ldr	w3, [sp, #96]
   812c0:	f9402fe2 	ldr	x2, [sp, #88]
   812c4:	f9401be1 	ldr	x1, [sp, #48]
   812c8:	f9401fe0 	ldr	x0, [sp, #56]
   812cc:	97fffcde 	bl	80644 <cprint_int>
   812d0:	14000069 	b	81474 <vcprintf+0xa38>
   812d4:	b9401a61 	ldr	w1, [x19, #24]
   812d8:	f9400260 	ldr	x0, [x19]
   812dc:	7100003f 	cmp	w1, #0x0
   812e0:	540000ab 	b.lt	812f4 <vcprintf+0x8b8>  // b.tstop
   812e4:	91002c01 	add	x1, x0, #0xb
   812e8:	927df021 	and	x1, x1, #0xfffffffffffffff8
   812ec:	f9000261 	str	x1, [x19]
   812f0:	1400000d 	b	81324 <vcprintf+0x8e8>
   812f4:	11002022 	add	w2, w1, #0x8
   812f8:	b9001a62 	str	w2, [x19, #24]
   812fc:	b9401a62 	ldr	w2, [x19, #24]
   81300:	7100005f 	cmp	w2, #0x0
   81304:	540000ad 	b.le	81318 <vcprintf+0x8dc>
   81308:	91002c01 	add	x1, x0, #0xb
   8130c:	927df021 	and	x1, x1, #0xfffffffffffffff8
   81310:	f9000261 	str	x1, [x19]
   81314:	14000004 	b	81324 <vcprintf+0x8e8>
   81318:	f9400662 	ldr	x2, [x19, #8]
   8131c:	93407c20 	sxtw	x0, w1
   81320:	8b000040 	add	x0, x2, x0
   81324:	b9400000 	ldr	w0, [x0]
   81328:	12001c00 	and	w0, w0, #0xff
   8132c:	f9401fe2 	ldr	x2, [sp, #56]
   81330:	f9401be1 	ldr	x1, [sp, #48]
   81334:	d63f0040 	blr	x2
   81338:	1400004f 	b	81474 <vcprintf+0xa38>
   8133c:	b9401a61 	ldr	w1, [x19, #24]
   81340:	f9400260 	ldr	x0, [x19]
   81344:	7100003f 	cmp	w1, #0x0
   81348:	540000ab 	b.lt	8135c <vcprintf+0x920>  // b.tstop
   8134c:	91003c01 	add	x1, x0, #0xf
   81350:	927df021 	and	x1, x1, #0xfffffffffffffff8
   81354:	f9000261 	str	x1, [x19]
   81358:	1400000d 	b	8138c <vcprintf+0x950>
   8135c:	11002022 	add	w2, w1, #0x8
   81360:	b9001a62 	str	w2, [x19, #24]
   81364:	b9401a62 	ldr	w2, [x19, #24]
   81368:	7100005f 	cmp	w2, #0x0
   8136c:	540000ad 	b.le	81380 <vcprintf+0x944>
   81370:	91003c01 	add	x1, x0, #0xf
   81374:	927df021 	and	x1, x1, #0xfffffffffffffff8
   81378:	f9000261 	str	x1, [x19]
   8137c:	14000004 	b	8138c <vcprintf+0x950>
   81380:	f9400662 	ldr	x2, [x19, #8]
   81384:	93407c20 	sxtw	x0, w1
   81388:	8b000040 	add	x0, x2, x0
   8138c:	f9400000 	ldr	x0, [x0]
   81390:	f9002be0 	str	x0, [sp, #80]
   81394:	b9406be0 	ldr	w0, [sp, #104]
   81398:	3100041f 	cmn	w0, #0x1
   8139c:	54000301 	b.ne	813fc <vcprintf+0x9c0>  // b.any
   813a0:	14000008 	b	813c0 <vcprintf+0x984>
   813a4:	f9402be0 	ldr	x0, [sp, #80]
   813a8:	91000401 	add	x1, x0, #0x1
   813ac:	f9002be1 	str	x1, [sp, #80]
   813b0:	39400000 	ldrb	w0, [x0]
   813b4:	f9401fe2 	ldr	x2, [sp, #56]
   813b8:	f9401be1 	ldr	x1, [sp, #48]
   813bc:	d63f0040 	blr	x2
   813c0:	f9402be0 	ldr	x0, [sp, #80]
   813c4:	39400000 	ldrb	w0, [x0]
   813c8:	7100001f 	cmp	w0, #0x0
   813cc:	54fffec1 	b.ne	813a4 <vcprintf+0x968>  // b.any
   813d0:	14000028 	b	81470 <vcprintf+0xa34>
   813d4:	b9406be0 	ldr	w0, [sp, #104]
   813d8:	51000400 	sub	w0, w0, #0x1
   813dc:	b9006be0 	str	w0, [sp, #104]
   813e0:	f9402be0 	ldr	x0, [sp, #80]
   813e4:	91000401 	add	x1, x0, #0x1
   813e8:	f9002be1 	str	x1, [sp, #80]
   813ec:	39400000 	ldrb	w0, [x0]
   813f0:	f9401fe2 	ldr	x2, [sp, #56]
   813f4:	f9401be1 	ldr	x1, [sp, #48]
   813f8:	d63f0040 	blr	x2
   813fc:	b9406be0 	ldr	w0, [sp, #104]
   81400:	7100001f 	cmp	w0, #0x0
   81404:	5400036d 	b.le	81470 <vcprintf+0xa34>
   81408:	f9402be0 	ldr	x0, [sp, #80]
   8140c:	39400000 	ldrb	w0, [x0]
   81410:	7100001f 	cmp	w0, #0x0
   81414:	54fffe01 	b.ne	813d4 <vcprintf+0x998>  // b.any
   81418:	14000016 	b	81470 <vcprintf+0xa34>
   8141c:	f9401fe2 	ldr	x2, [sp, #56]
   81420:	f9401be1 	ldr	x1, [sp, #48]
   81424:	528004a0 	mov	w0, #0x25                  	// #37
   81428:	d63f0040 	blr	x2
   8142c:	14000012 	b	81474 <vcprintf+0xa38>
   81430:	14000004 	b	81440 <vcprintf+0xa04>
   81434:	f94017e0 	ldr	x0, [sp, #40]
   81438:	d1000400 	sub	x0, x0, #0x1
   8143c:	f90017e0 	str	x0, [sp, #40]
   81440:	f94017e0 	ldr	x0, [sp, #40]
   81444:	39400000 	ldrb	w0, [x0]
   81448:	7100941f 	cmp	w0, #0x25
   8144c:	54ffff41 	b.ne	81434 <vcprintf+0x9f8>  // b.any
   81450:	f94017e0 	ldr	x0, [sp, #40]
   81454:	91000401 	add	x1, x0, #0x1
   81458:	f90017e1 	str	x1, [sp, #40]
   8145c:	39400000 	ldrb	w0, [x0]
   81460:	f9401fe2 	ldr	x2, [sp, #56]
   81464:	f9401be1 	ldr	x1, [sp, #48]
   81468:	d63f0040 	blr	x2
   8146c:	14000002 	b	81474 <vcprintf+0xa38>
   81470:	d503201f 	nop
   81474:	f94017e0 	ldr	x0, [sp, #40]
   81478:	39400000 	ldrb	w0, [x0]
   8147c:	7100001f 	cmp	w0, #0x0
   81480:	54ffaee1 	b.ne	80a5c <vcprintf+0x20>  // b.any
   81484:	d503201f 	nop
   81488:	d503201f 	nop
   8148c:	f9400bf3 	ldr	x19, [sp, #16]
   81490:	a8c77bfd 	ldp	x29, x30, [sp], #112
   81494:	d65f03c0 	ret

0000000000081498 <vsnprintf>:
   81498:	a9b97bfd 	stp	x29, x30, [sp, #-112]!
   8149c:	910003fd 	mov	x29, sp
   814a0:	f9000bf3 	str	x19, [sp, #16]
   814a4:	f9002fe0 	str	x0, [sp, #88]
   814a8:	f9002be1 	str	x1, [sp, #80]
   814ac:	f90027e2 	str	x2, [sp, #72]
   814b0:	aa0303f3 	mov	x19, x3
   814b4:	f9402fe0 	ldr	x0, [sp, #88]
   814b8:	f90033e0 	str	x0, [sp, #96]
   814bc:	f9402be0 	ldr	x0, [sp, #80]
   814c0:	f90037e0 	str	x0, [sp, #104]
   814c4:	910083e2 	add	x2, sp, #0x20
   814c8:	aa1303e3 	mov	x3, x19
   814cc:	a9400460 	ldp	x0, x1, [x3]
   814d0:	a9000440 	stp	x0, x1, [x2]
   814d4:	a9410460 	ldp	x0, x1, [x3, #16]
   814d8:	a9010440 	stp	x0, x1, [x2, #16]
   814dc:	910083e1 	add	x1, sp, #0x20
   814e0:	910183e0 	add	x0, sp, #0x60
   814e4:	aa0103e3 	mov	x3, x1
   814e8:	f94027e2 	ldr	x2, [sp, #72]
   814ec:	aa0003e1 	mov	x1, x0
   814f0:	f0ffffe0 	adrp	x0, 80000 <__start>
   814f4:	91277000 	add	x0, x0, #0x9dc
   814f8:	97fffd51 	bl	80a3c <vcprintf>
   814fc:	910183e0 	add	x0, sp, #0x60
   81500:	aa0003e1 	mov	x1, x0
   81504:	52800000 	mov	w0, #0x0                   	// #0
   81508:	97fffd35 	bl	809dc <buffer_add>
   8150c:	f9402be0 	ldr	x0, [sp, #80]
   81510:	d1000400 	sub	x0, x0, #0x1
   81514:	f9402fe1 	ldr	x1, [sp, #88]
   81518:	8b000020 	add	x0, x1, x0
   8151c:	3900001f 	strb	wzr, [x0]
   81520:	f94033e1 	ldr	x1, [sp, #96]
   81524:	f9402fe0 	ldr	x0, [sp, #88]
   81528:	cb000020 	sub	x0, x1, x0
   8152c:	51000400 	sub	w0, w0, #0x1
   81530:	f9400bf3 	ldr	x19, [sp, #16]
   81534:	a8c77bfd 	ldp	x29, x30, [sp], #112
   81538:	d65f03c0 	ret

000000000008153c <cprintf>:
   8153c:	a9ae7bfd 	stp	x29, x30, [sp, #-288]!
   81540:	910003fd 	mov	x29, sp
   81544:	f90027e0 	str	x0, [sp, #72]
   81548:	f90023e1 	str	x1, [sp, #64]
   8154c:	f9001fe2 	str	x2, [sp, #56]
   81550:	f9007fe3 	str	x3, [sp, #248]
   81554:	f90083e4 	str	x4, [sp, #256]
   81558:	f90087e5 	str	x5, [sp, #264]
   8155c:	f9008be6 	str	x6, [sp, #272]
   81560:	f9008fe7 	str	x7, [sp, #280]
   81564:	3d801fe0 	str	q0, [sp, #112]
   81568:	3d8023e1 	str	q1, [sp, #128]
   8156c:	3d8027e2 	str	q2, [sp, #144]
   81570:	3d802be3 	str	q3, [sp, #160]
   81574:	3d802fe4 	str	q4, [sp, #176]
   81578:	3d8033e5 	str	q5, [sp, #192]
   8157c:	3d8037e6 	str	q6, [sp, #208]
   81580:	3d803be7 	str	q7, [sp, #224]
   81584:	910483e0 	add	x0, sp, #0x120
   81588:	f9002be0 	str	x0, [sp, #80]
   8158c:	910483e0 	add	x0, sp, #0x120
   81590:	f9002fe0 	str	x0, [sp, #88]
   81594:	9103c3e0 	add	x0, sp, #0xf0
   81598:	f90033e0 	str	x0, [sp, #96]
   8159c:	128004e0 	mov	w0, #0xffffffd8            	// #-40
   815a0:	b9006be0 	str	w0, [sp, #104]
   815a4:	12800fe0 	mov	w0, #0xffffff80            	// #-128
   815a8:	b9006fe0 	str	w0, [sp, #108]
   815ac:	910043e2 	add	x2, sp, #0x10
   815b0:	910143e3 	add	x3, sp, #0x50
   815b4:	a9400460 	ldp	x0, x1, [x3]
   815b8:	a9000440 	stp	x0, x1, [x2]
   815bc:	a9410460 	ldp	x0, x1, [x3, #16]
   815c0:	a9010440 	stp	x0, x1, [x2, #16]
   815c4:	910043e0 	add	x0, sp, #0x10
   815c8:	aa0003e3 	mov	x3, x0
   815cc:	f9401fe2 	ldr	x2, [sp, #56]
   815d0:	f94023e1 	ldr	x1, [sp, #64]
   815d4:	f94027e0 	ldr	x0, [sp, #72]
   815d8:	97fffd19 	bl	80a3c <vcprintf>
   815dc:	d503201f 	nop
   815e0:	a8d27bfd 	ldp	x29, x30, [sp], #288
   815e4:	d65f03c0 	ret

00000000000815e8 <main>:
   815e8:	580002c5 	ldr	x5, 81640 <main+0x58>
   815ec:	d63f00a0 	blr	x5
   815f0:	d2800140 	mov	x0, #0xa                   	// #10
   815f4:	d28000a1 	mov	x1, #0x5                   	// #5
   815f8:	58000282 	ldr	x2, 81648 <main+0x60>
   815fc:	580002a5 	ldr	x5, 81650 <main+0x68>
   81600:	d63f00a0 	blr	x5
   81604:	d2800d00 	mov	x0, #0x68                  	// #104
   81608:	d28000a1 	mov	x1, #0x5                   	// #5
   8160c:	580001e2 	ldr	x2, 81648 <main+0x60>
   81610:	58000205 	ldr	x5, 81650 <main+0x68>
   81614:	d63f00a0 	blr	x5
   81618:	d2800ca0 	mov	x0, #0x65                  	// #101
   8161c:	d28000a1 	mov	x1, #0x5                   	// #5
   81620:	58000142 	ldr	x2, 81648 <main+0x60>
   81624:	58000165 	ldr	x5, 81650 <main+0x68>
   81628:	d63f00a0 	blr	x5
   8162c:	d2800f20 	mov	x0, #0x79                  	// #121
   81630:	d28000a1 	mov	x1, #0x5                   	// #5
   81634:	580000a2 	ldr	x2, 81648 <main+0x60>
   81638:	580000c5 	ldr	x5, 81650 <main+0x68>
   8163c:	d63f00a0 	blr	x5
   81640:	000847c4 	.inst	0x000847c4 ; undefined
   81644:	00000000 	udf	#0
   81648:	0000ff00 	udf	#65280
   8164c:	00000000 	udf	#0
   81650:	00084844 	.inst	0x00084844 ; undefined
   81654:	00000000 	udf	#0

0000000000081658 <fonts_char_to_font>:
   81658:	d10043ff 	sub	sp, sp, #0x10
   8165c:	39003fe0 	strb	w0, [sp, #15]
   81660:	39c03fe0 	ldrsb	w0, [sp, #15]
   81664:	7100001f 	cmp	w0, #0x0
   81668:	5400008a 	b.ge	81678 <fonts_char_to_font+0x20>  // b.tcont
   8166c:	90000020 	adrp	x0, 85000 <char_font_map+0x108>
   81670:	912de000 	add	x0, x0, #0xb78
   81674:	14000015 	b	816c8 <fonts_char_to_font+0x70>
   81678:	39403fe0 	ldrb	w0, [sp, #15]
   8167c:	7101801f 	cmp	w0, #0x60
   81680:	540000e9 	b.ls	8169c <fonts_char_to_font+0x44>  // b.plast
   81684:	39403fe0 	ldrb	w0, [sp, #15]
   81688:	7101e81f 	cmp	w0, #0x7a
   8168c:	54000088 	b.hi	8169c <fonts_char_to_font+0x44>  // b.pmore
   81690:	39403fe0 	ldrb	w0, [sp, #15]
   81694:	51008000 	sub	w0, w0, #0x20
   81698:	14000002 	b	816a0 <fonts_char_to_font+0x48>
   8169c:	39403fe0 	ldrb	w0, [sp, #15]
   816a0:	93407c01 	sxtw	x1, w0
   816a4:	aa0103e0 	mov	x0, x1
   816a8:	d37ff800 	lsl	x0, x0, #1
   816ac:	8b010000 	add	x0, x0, x1
   816b0:	d37df000 	lsl	x0, x0, #3
   816b4:	8b010000 	add	x0, x0, x1
   816b8:	d37ef400 	lsl	x0, x0, #2
   816bc:	f0000001 	adrp	x1, 84000 <fonts_init+0x2930>
   816c0:	913be021 	add	x1, x1, #0xef8
   816c4:	8b010000 	add	x0, x0, x1
   816c8:	910043ff 	add	sp, sp, #0x10
   816cc:	d65f03c0 	ret

00000000000816d0 <fonts_init>:
   816d0:	d10043ff 	sub	sp, sp, #0x10
   816d4:	f0000000 	adrp	x0, 84000 <fonts_init+0x2930>
   816d8:	913a4000 	add	x0, x0, #0xe90
   816dc:	b900001f 	str	wzr, [x0]
   816e0:	b9000fff 	str	wzr, [sp, #12]
   816e4:	1400001f 	b	81760 <fonts_init+0x90>
   816e8:	f0000000 	adrp	x0, 84000 <fonts_init+0x2930>
   816ec:	913be002 	add	x2, x0, #0xef8
   816f0:	b9400fe1 	ldr	w1, [sp, #12]
   816f4:	aa0103e0 	mov	x0, x1
   816f8:	d37ff800 	lsl	x0, x0, #1
   816fc:	8b010000 	add	x0, x0, x1
   81700:	d37df000 	lsl	x0, x0, #3
   81704:	8b010000 	add	x0, x0, x1
   81708:	d37ef400 	lsl	x0, x0, #2
   8170c:	8b000042 	add	x2, x2, x0
   81710:	f0000000 	adrp	x0, 84000 <fonts_init+0x2930>
   81714:	913a4001 	add	x1, x0, #0xe90
   81718:	aa0203e0 	mov	x0, x2
   8171c:	a9400c22 	ldp	x2, x3, [x1]
   81720:	a9000c02 	stp	x2, x3, [x0]
   81724:	a9410c22 	ldp	x2, x3, [x1, #16]
   81728:	a9010c02 	stp	x2, x3, [x0, #16]
   8172c:	a9420c22 	ldp	x2, x3, [x1, #32]
   81730:	a9020c02 	stp	x2, x3, [x0, #32]
   81734:	a9430c22 	ldp	x2, x3, [x1, #48]
   81738:	a9030c02 	stp	x2, x3, [x0, #48]
   8173c:	a9440c22 	ldp	x2, x3, [x1, #64]
   81740:	a9040c02 	stp	x2, x3, [x0, #64]
   81744:	a9450c22 	ldp	x2, x3, [x1, #80]
   81748:	a9050c02 	stp	x2, x3, [x0, #80]
   8174c:	b9406021 	ldr	w1, [x1, #96]
   81750:	b9006001 	str	w1, [x0, #96]
   81754:	b9400fe0 	ldr	w0, [sp, #12]
   81758:	11000400 	add	w0, w0, #0x1
   8175c:	b9000fe0 	str	w0, [sp, #12]
   81760:	b9400fe0 	ldr	w0, [sp, #12]
   81764:	7101f81f 	cmp	w0, #0x7e
   81768:	54fffc09 	b.ls	816e8 <fonts_init+0x18>  // b.plast
   8176c:	f0000000 	adrp	x0, 84000 <fonts_init+0x2930>
   81770:	913a4000 	add	x0, x0, #0xe90
   81774:	b900001f 	str	wzr, [x0]
   81778:	f0000000 	adrp	x0, 84000 <fonts_init+0x2930>
   8177c:	913be000 	add	x0, x0, #0xef8
   81780:	91300000 	add	x0, x0, #0xc00
   81784:	91020002 	add	x2, x0, #0x80
   81788:	f0000000 	adrp	x0, 84000 <fonts_init+0x2930>
   8178c:	913a4001 	add	x1, x0, #0xe90
   81790:	aa0203e0 	mov	x0, x2
   81794:	a9400c22 	ldp	x2, x3, [x1]
   81798:	a9000c02 	stp	x2, x3, [x0]
   8179c:	a9410c22 	ldp	x2, x3, [x1, #16]
   817a0:	a9010c02 	stp	x2, x3, [x0, #16]
   817a4:	a9420c22 	ldp	x2, x3, [x1, #32]
   817a8:	a9020c02 	stp	x2, x3, [x0, #32]
   817ac:	a9430c22 	ldp	x2, x3, [x1, #48]
   817b0:	a9030c02 	stp	x2, x3, [x0, #48]
   817b4:	a9440c22 	ldp	x2, x3, [x1, #64]
   817b8:	a9040c02 	stp	x2, x3, [x0, #64]
   817bc:	a9450c22 	ldp	x2, x3, [x1, #80]
   817c0:	a9050c02 	stp	x2, x3, [x0, #80]
   817c4:	b9406021 	ldr	w1, [x1, #96]
   817c8:	b9006001 	str	w1, [x0, #96]
   817cc:	f0000000 	adrp	x0, 84000 <fonts_init+0x2930>
   817d0:	913a4000 	add	x0, x0, #0xe90
   817d4:	52800061 	mov	w1, #0x3                   	// #3
   817d8:	b9000001 	str	w1, [x0]
   817dc:	f0000000 	adrp	x0, 84000 <fonts_init+0x2930>
   817e0:	913a4000 	add	x0, x0, #0xe90
   817e4:	b900041f 	str	wzr, [x0, #4]
   817e8:	f0000000 	adrp	x0, 84000 <fonts_init+0x2930>
   817ec:	913a4000 	add	x0, x0, #0xe90
   817f0:	b900081f 	str	wzr, [x0, #8]
   817f4:	f0000000 	adrp	x0, 84000 <fonts_init+0x2930>
   817f8:	913a4000 	add	x0, x0, #0xe90
   817fc:	52800041 	mov	w1, #0x2                   	// #2
   81800:	b9000c01 	str	w1, [x0, #12]
   81804:	f0000000 	adrp	x0, 84000 <fonts_init+0x2930>
   81808:	913a4000 	add	x0, x0, #0xe90
   8180c:	128000a1 	mov	w1, #0xfffffffa            	// #-6
   81810:	b9001001 	str	w1, [x0, #16]
   81814:	f0000000 	adrp	x0, 84000 <fonts_init+0x2930>
   81818:	913a4000 	add	x0, x0, #0xe90
   8181c:	52800041 	mov	w1, #0x2                   	// #2
   81820:	b9001401 	str	w1, [x0, #20]
   81824:	f0000000 	adrp	x0, 84000 <fonts_init+0x2930>
   81828:	913a4000 	add	x0, x0, #0xe90
   8182c:	128000a1 	mov	w1, #0xfffffffa            	// #-6
   81830:	b9001801 	str	w1, [x0, #24]
   81834:	f0000000 	adrp	x0, 84000 <fonts_init+0x2930>
   81838:	913a4000 	add	x0, x0, #0xe90
   8183c:	52800081 	mov	w1, #0x4                   	// #4
   81840:	b9001c01 	str	w1, [x0, #28]
   81844:	f0000000 	adrp	x0, 84000 <fonts_init+0x2930>
   81848:	913a4000 	add	x0, x0, #0xe90
   8184c:	b900201f 	str	wzr, [x0, #32]
   81850:	f0000000 	adrp	x0, 84000 <fonts_init+0x2930>
   81854:	913a4000 	add	x0, x0, #0xe90
   81858:	52800021 	mov	w1, #0x1                   	// #1
   8185c:	b9002401 	str	w1, [x0, #36]
   81860:	f0000000 	adrp	x0, 84000 <fonts_init+0x2930>
   81864:	913a4000 	add	x0, x0, #0xe90
   81868:	12800021 	mov	w1, #0xfffffffe            	// #-2
   8186c:	b9002801 	str	w1, [x0, #40]
   81870:	f0000000 	adrp	x0, 84000 <fonts_init+0x2930>
   81874:	913a4000 	add	x0, x0, #0xe90
   81878:	52800061 	mov	w1, #0x3                   	// #3
   8187c:	b9002c01 	str	w1, [x0, #44]
   81880:	f0000000 	adrp	x0, 84000 <fonts_init+0x2930>
   81884:	913a4000 	add	x0, x0, #0xe90
   81888:	12800021 	mov	w1, #0xfffffffe            	// #-2
   8188c:	b9003001 	str	w1, [x0, #48]
   81890:	f0000000 	adrp	x0, 84000 <fonts_init+0x2930>
   81894:	913be001 	add	x1, x0, #0xef8
   81898:	d2830000 	mov	x0, #0x1800                	// #6144
   8189c:	8b000020 	add	x0, x1, x0
   818a0:	91059002 	add	x2, x0, #0x164
   818a4:	f0000000 	adrp	x0, 84000 <fonts_init+0x2930>
   818a8:	913a4001 	add	x1, x0, #0xe90
   818ac:	aa0203e0 	mov	x0, x2
   818b0:	a9400c22 	ldp	x2, x3, [x1]
   818b4:	a9000c02 	stp	x2, x3, [x0]
   818b8:	a9410c22 	ldp	x2, x3, [x1, #16]
   818bc:	a9010c02 	stp	x2, x3, [x0, #16]
   818c0:	a9420c22 	ldp	x2, x3, [x1, #32]
   818c4:	a9020c02 	stp	x2, x3, [x0, #32]
   818c8:	a9430c22 	ldp	x2, x3, [x1, #48]
   818cc:	a9030c02 	stp	x2, x3, [x0, #48]
   818d0:	a9440c22 	ldp	x2, x3, [x1, #64]
   818d4:	a9040c02 	stp	x2, x3, [x0, #64]
   818d8:	a9450c22 	ldp	x2, x3, [x1, #80]
   818dc:	a9050c02 	stp	x2, x3, [x0, #80]
   818e0:	b9406021 	ldr	w1, [x1, #96]
   818e4:	b9006001 	str	w1, [x0, #96]
   818e8:	f0000000 	adrp	x0, 84000 <fonts_init+0x2930>
   818ec:	913a4000 	add	x0, x0, #0xe90
   818f0:	528000a1 	mov	w1, #0x5                   	// #5
   818f4:	b9000001 	str	w1, [x0]
   818f8:	f0000000 	adrp	x0, 84000 <fonts_init+0x2930>
   818fc:	913a4000 	add	x0, x0, #0xe90
   81900:	b900041f 	str	wzr, [x0, #4]
   81904:	f0000000 	adrp	x0, 84000 <fonts_init+0x2930>
   81908:	913a4000 	add	x0, x0, #0xe90
   8190c:	b900081f 	str	wzr, [x0, #8]
   81910:	f0000000 	adrp	x0, 84000 <fonts_init+0x2930>
   81914:	913a4000 	add	x0, x0, #0xe90
   81918:	b9000c1f 	str	wzr, [x0, #12]
   8191c:	f0000000 	adrp	x0, 84000 <fonts_init+0x2930>
   81920:	913a4000 	add	x0, x0, #0xe90
   81924:	128000a1 	mov	w1, #0xfffffffa            	// #-6
   81928:	b9001001 	str	w1, [x0, #16]
   8192c:	f0000000 	adrp	x0, 84000 <fonts_init+0x2930>
   81930:	913a4000 	add	x0, x0, #0xe90
   81934:	b900141f 	str	wzr, [x0, #20]
   81938:	f0000000 	adrp	x0, 84000 <fonts_init+0x2930>
   8193c:	913a4000 	add	x0, x0, #0xe90
   81940:	128000a1 	mov	w1, #0xfffffffa            	// #-6
   81944:	b9001801 	str	w1, [x0, #24]
   81948:	f0000000 	adrp	x0, 84000 <fonts_init+0x2930>
   8194c:	913a4000 	add	x0, x0, #0xe90
   81950:	52800081 	mov	w1, #0x4                   	// #4
   81954:	b9001c01 	str	w1, [x0, #28]
   81958:	f0000000 	adrp	x0, 84000 <fonts_init+0x2930>
   8195c:	913a4000 	add	x0, x0, #0xe90
   81960:	12800061 	mov	w1, #0xfffffffc            	// #-4
   81964:	b9002001 	str	w1, [x0, #32]
   81968:	f0000000 	adrp	x0, 84000 <fonts_init+0x2930>
   8196c:	913a4000 	add	x0, x0, #0xe90
   81970:	52800081 	mov	w1, #0x4                   	// #4
   81974:	b9002401 	str	w1, [x0, #36]
   81978:	f0000000 	adrp	x0, 84000 <fonts_init+0x2930>
   8197c:	913a4000 	add	x0, x0, #0xe90
   81980:	12800061 	mov	w1, #0xfffffffc            	// #-4
   81984:	b9002801 	str	w1, [x0, #40]
   81988:	f0000000 	adrp	x0, 84000 <fonts_init+0x2930>
   8198c:	913a4000 	add	x0, x0, #0xe90
   81990:	b9002c1f 	str	wzr, [x0, #44]
   81994:	f0000000 	adrp	x0, 84000 <fonts_init+0x2930>
   81998:	913a4000 	add	x0, x0, #0xe90
   8199c:	12800041 	mov	w1, #0xfffffffd            	// #-3
   819a0:	b9003001 	str	w1, [x0, #48]
   819a4:	f0000000 	adrp	x0, 84000 <fonts_init+0x2930>
   819a8:	913a4000 	add	x0, x0, #0xe90
   819ac:	b900341f 	str	wzr, [x0, #52]
   819b0:	f0000000 	adrp	x0, 84000 <fonts_init+0x2930>
   819b4:	913a4000 	add	x0, x0, #0xe90
   819b8:	12800041 	mov	w1, #0xfffffffd            	// #-3
   819bc:	b9003801 	str	w1, [x0, #56]
   819c0:	f0000000 	adrp	x0, 84000 <fonts_init+0x2930>
   819c4:	913a4000 	add	x0, x0, #0xe90
   819c8:	52800081 	mov	w1, #0x4                   	// #4
   819cc:	b9003c01 	str	w1, [x0, #60]
   819d0:	f0000000 	adrp	x0, 84000 <fonts_init+0x2930>
   819d4:	913a4000 	add	x0, x0, #0xe90
   819d8:	12800021 	mov	w1, #0xfffffffe            	// #-2
   819dc:	b9004001 	str	w1, [x0, #64]
   819e0:	f0000000 	adrp	x0, 84000 <fonts_init+0x2930>
   819e4:	913a4000 	add	x0, x0, #0xe90
   819e8:	52800081 	mov	w1, #0x4                   	// #4
   819ec:	b9004401 	str	w1, [x0, #68]
   819f0:	f0000000 	adrp	x0, 84000 <fonts_init+0x2930>
   819f4:	913a4000 	add	x0, x0, #0xe90
   819f8:	12800021 	mov	w1, #0xfffffffe            	// #-2
   819fc:	b9004801 	str	w1, [x0, #72]
   81a00:	f0000000 	adrp	x0, 84000 <fonts_init+0x2930>
   81a04:	913a4000 	add	x0, x0, #0xe90
   81a08:	b9004c1f 	str	wzr, [x0, #76]
   81a0c:	f0000000 	adrp	x0, 84000 <fonts_init+0x2930>
   81a10:	913a4000 	add	x0, x0, #0xe90
   81a14:	b900501f 	str	wzr, [x0, #80]
   81a18:	f0000000 	adrp	x0, 84000 <fonts_init+0x2930>
   81a1c:	913be001 	add	x1, x0, #0xef8
   81a20:	d2830000 	mov	x0, #0x1800                	// #6144
   81a24:	8b000020 	add	x0, x1, x0
   81a28:	91072002 	add	x2, x0, #0x1c8
   81a2c:	f0000000 	adrp	x0, 84000 <fonts_init+0x2930>
   81a30:	913a4001 	add	x1, x0, #0xe90
   81a34:	aa0203e0 	mov	x0, x2
   81a38:	a9400c22 	ldp	x2, x3, [x1]
   81a3c:	a9000c02 	stp	x2, x3, [x0]
   81a40:	a9410c22 	ldp	x2, x3, [x1, #16]
   81a44:	a9010c02 	stp	x2, x3, [x0, #16]
   81a48:	a9420c22 	ldp	x2, x3, [x1, #32]
   81a4c:	a9020c02 	stp	x2, x3, [x0, #32]
   81a50:	a9430c22 	ldp	x2, x3, [x1, #48]
   81a54:	a9030c02 	stp	x2, x3, [x0, #48]
   81a58:	a9440c22 	ldp	x2, x3, [x1, #64]
   81a5c:	a9040c02 	stp	x2, x3, [x0, #64]
   81a60:	a9450c22 	ldp	x2, x3, [x1, #80]
   81a64:	a9050c02 	stp	x2, x3, [x0, #80]
   81a68:	b9406021 	ldr	w1, [x1, #96]
   81a6c:	b9006001 	str	w1, [x0, #96]
   81a70:	f0000000 	adrp	x0, 84000 <fonts_init+0x2930>
   81a74:	913a4000 	add	x0, x0, #0xe90
   81a78:	52800061 	mov	w1, #0x3                   	// #3
   81a7c:	b9000001 	str	w1, [x0]
   81a80:	f0000000 	adrp	x0, 84000 <fonts_init+0x2930>
   81a84:	913a4000 	add	x0, x0, #0xe90
   81a88:	b900041f 	str	wzr, [x0, #4]
   81a8c:	f0000000 	adrp	x0, 84000 <fonts_init+0x2930>
   81a90:	913a4000 	add	x0, x0, #0xe90
   81a94:	b900081f 	str	wzr, [x0, #8]
   81a98:	f0000000 	adrp	x0, 84000 <fonts_init+0x2930>
   81a9c:	913a4000 	add	x0, x0, #0xe90
   81aa0:	52800081 	mov	w1, #0x4                   	// #4
   81aa4:	b9000c01 	str	w1, [x0, #12]
   81aa8:	f0000000 	adrp	x0, 84000 <fonts_init+0x2930>
   81aac:	913a4000 	add	x0, x0, #0xe90
   81ab0:	b900101f 	str	wzr, [x0, #16]
   81ab4:	f0000000 	adrp	x0, 84000 <fonts_init+0x2930>
   81ab8:	913a4000 	add	x0, x0, #0xe90
   81abc:	b900141f 	str	wzr, [x0, #20]
   81ac0:	f0000000 	adrp	x0, 84000 <fonts_init+0x2930>
   81ac4:	913a4000 	add	x0, x0, #0xe90
   81ac8:	128000a1 	mov	w1, #0xfffffffa            	// #-6
   81acc:	b9001801 	str	w1, [x0, #24]
   81ad0:	f0000000 	adrp	x0, 84000 <fonts_init+0x2930>
   81ad4:	913a4000 	add	x0, x0, #0xe90
   81ad8:	52800081 	mov	w1, #0x4                   	// #4
   81adc:	b9001c01 	str	w1, [x0, #28]
   81ae0:	f0000000 	adrp	x0, 84000 <fonts_init+0x2930>
   81ae4:	913a4000 	add	x0, x0, #0xe90
   81ae8:	128000a1 	mov	w1, #0xfffffffa            	// #-6
   81aec:	b9002001 	str	w1, [x0, #32]
   81af0:	f0000000 	adrp	x0, 84000 <fonts_init+0x2930>
   81af4:	913a4000 	add	x0, x0, #0xe90
   81af8:	b900241f 	str	wzr, [x0, #36]
   81afc:	f0000000 	adrp	x0, 84000 <fonts_init+0x2930>
   81b00:	913a4000 	add	x0, x0, #0xe90
   81b04:	128000a1 	mov	w1, #0xfffffffa            	// #-6
   81b08:	b9002801 	str	w1, [x0, #40]
   81b0c:	f0000000 	adrp	x0, 84000 <fonts_init+0x2930>
   81b10:	913a4000 	add	x0, x0, #0xe90
   81b14:	b9002c1f 	str	wzr, [x0, #44]
   81b18:	f0000000 	adrp	x0, 84000 <fonts_init+0x2930>
   81b1c:	913a4000 	add	x0, x0, #0xe90
   81b20:	b900301f 	str	wzr, [x0, #48]
   81b24:	f0000000 	adrp	x0, 84000 <fonts_init+0x2930>
   81b28:	913be001 	add	x1, x0, #0xef8
   81b2c:	d2838000 	mov	x0, #0x1c00                	// #7168
   81b30:	8b000020 	add	x0, x1, x0
   81b34:	d1075002 	sub	x2, x0, #0x1d4
   81b38:	f0000000 	adrp	x0, 84000 <fonts_init+0x2930>
   81b3c:	913a4001 	add	x1, x0, #0xe90
   81b40:	aa0203e0 	mov	x0, x2
   81b44:	a9400c22 	ldp	x2, x3, [x1]
   81b48:	a9000c02 	stp	x2, x3, [x0]
   81b4c:	a9410c22 	ldp	x2, x3, [x1, #16]
   81b50:	a9010c02 	stp	x2, x3, [x0, #16]
   81b54:	a9420c22 	ldp	x2, x3, [x1, #32]
   81b58:	a9020c02 	stp	x2, x3, [x0, #32]
   81b5c:	a9430c22 	ldp	x2, x3, [x1, #48]
   81b60:	a9030c02 	stp	x2, x3, [x0, #48]
   81b64:	a9440c22 	ldp	x2, x3, [x1, #64]
   81b68:	a9040c02 	stp	x2, x3, [x0, #64]
   81b6c:	a9450c22 	ldp	x2, x3, [x1, #80]
   81b70:	a9050c02 	stp	x2, x3, [x0, #80]
   81b74:	b9406021 	ldr	w1, [x1, #96]
   81b78:	b9006001 	str	w1, [x0, #96]
   81b7c:	f0000000 	adrp	x0, 84000 <fonts_init+0x2930>
   81b80:	913a4000 	add	x0, x0, #0xe90
   81b84:	52800061 	mov	w1, #0x3                   	// #3
   81b88:	b9000001 	str	w1, [x0]
   81b8c:	f0000000 	adrp	x0, 84000 <fonts_init+0x2930>
   81b90:	913a4000 	add	x0, x0, #0xe90
   81b94:	b900041f 	str	wzr, [x0, #4]
   81b98:	f0000000 	adrp	x0, 84000 <fonts_init+0x2930>
   81b9c:	913a4000 	add	x0, x0, #0xe90
   81ba0:	b900081f 	str	wzr, [x0, #8]
   81ba4:	f0000000 	adrp	x0, 84000 <fonts_init+0x2930>
   81ba8:	913a4000 	add	x0, x0, #0xe90
   81bac:	b9000c1f 	str	wzr, [x0, #12]
   81bb0:	f0000000 	adrp	x0, 84000 <fonts_init+0x2930>
   81bb4:	913a4000 	add	x0, x0, #0xe90
   81bb8:	128000a1 	mov	w1, #0xfffffffa            	// #-6
   81bbc:	b9001001 	str	w1, [x0, #16]
   81bc0:	f0000000 	adrp	x0, 84000 <fonts_init+0x2930>
   81bc4:	913a4000 	add	x0, x0, #0xe90
   81bc8:	b900141f 	str	wzr, [x0, #20]
   81bcc:	f0000000 	adrp	x0, 84000 <fonts_init+0x2930>
   81bd0:	913a4000 	add	x0, x0, #0xe90
   81bd4:	128000a1 	mov	w1, #0xfffffffa            	// #-6
   81bd8:	b9001801 	str	w1, [x0, #24]
   81bdc:	f0000000 	adrp	x0, 84000 <fonts_init+0x2930>
   81be0:	913a4000 	add	x0, x0, #0xe90
   81be4:	52800081 	mov	w1, #0x4                   	// #4
   81be8:	b9001c01 	str	w1, [x0, #28]
   81bec:	f0000000 	adrp	x0, 84000 <fonts_init+0x2930>
   81bf0:	913a4000 	add	x0, x0, #0xe90
   81bf4:	12800041 	mov	w1, #0xfffffffd            	// #-3
   81bf8:	b9002001 	str	w1, [x0, #32]
   81bfc:	f0000000 	adrp	x0, 84000 <fonts_init+0x2930>
   81c00:	913a4000 	add	x0, x0, #0xe90
   81c04:	52800081 	mov	w1, #0x4                   	// #4
   81c08:	b9002401 	str	w1, [x0, #36]
   81c0c:	f0000000 	adrp	x0, 84000 <fonts_init+0x2930>
   81c10:	913a4000 	add	x0, x0, #0xe90
   81c14:	12800041 	mov	w1, #0xfffffffd            	// #-3
   81c18:	b9002801 	str	w1, [x0, #40]
   81c1c:	f0000000 	adrp	x0, 84000 <fonts_init+0x2930>
   81c20:	913a4000 	add	x0, x0, #0xe90
   81c24:	b9002c1f 	str	wzr, [x0, #44]
   81c28:	f0000000 	adrp	x0, 84000 <fonts_init+0x2930>
   81c2c:	913a4000 	add	x0, x0, #0xe90
   81c30:	b900301f 	str	wzr, [x0, #48]
   81c34:	f0000000 	adrp	x0, 84000 <fonts_init+0x2930>
   81c38:	913be001 	add	x1, x0, #0xef8
   81c3c:	d2838000 	mov	x0, #0x1c00                	// #7168
   81c40:	8b000020 	add	x0, x1, x0
   81c44:	d105c002 	sub	x2, x0, #0x170
   81c48:	f0000000 	adrp	x0, 84000 <fonts_init+0x2930>
   81c4c:	913a4001 	add	x1, x0, #0xe90
   81c50:	aa0203e0 	mov	x0, x2
   81c54:	a9400c22 	ldp	x2, x3, [x1]
   81c58:	a9000c02 	stp	x2, x3, [x0]
   81c5c:	a9410c22 	ldp	x2, x3, [x1, #16]
   81c60:	a9010c02 	stp	x2, x3, [x0, #16]
   81c64:	a9420c22 	ldp	x2, x3, [x1, #32]
   81c68:	a9020c02 	stp	x2, x3, [x0, #32]
   81c6c:	a9430c22 	ldp	x2, x3, [x1, #48]
   81c70:	a9030c02 	stp	x2, x3, [x0, #48]
   81c74:	a9440c22 	ldp	x2, x3, [x1, #64]
   81c78:	a9040c02 	stp	x2, x3, [x0, #64]
   81c7c:	a9450c22 	ldp	x2, x3, [x1, #80]
   81c80:	a9050c02 	stp	x2, x3, [x0, #80]
   81c84:	b9406021 	ldr	w1, [x1, #96]
   81c88:	b9006001 	str	w1, [x0, #96]
   81c8c:	f0000000 	adrp	x0, 84000 <fonts_init+0x2930>
   81c90:	913a4000 	add	x0, x0, #0xe90
   81c94:	52800081 	mov	w1, #0x4                   	// #4
   81c98:	b9000001 	str	w1, [x0]
   81c9c:	f0000000 	adrp	x0, 84000 <fonts_init+0x2930>
   81ca0:	913a4000 	add	x0, x0, #0xe90
   81ca4:	b900041f 	str	wzr, [x0, #4]
   81ca8:	f0000000 	adrp	x0, 84000 <fonts_init+0x2930>
   81cac:	913a4000 	add	x0, x0, #0xe90
   81cb0:	b900081f 	str	wzr, [x0, #8]
   81cb4:	f0000000 	adrp	x0, 84000 <fonts_init+0x2930>
   81cb8:	913a4000 	add	x0, x0, #0xe90
   81cbc:	52800081 	mov	w1, #0x4                   	// #4
   81cc0:	b9000c01 	str	w1, [x0, #12]
   81cc4:	f0000000 	adrp	x0, 84000 <fonts_init+0x2930>
   81cc8:	913a4000 	add	x0, x0, #0xe90
   81ccc:	b900101f 	str	wzr, [x0, #16]
   81cd0:	f0000000 	adrp	x0, 84000 <fonts_init+0x2930>
   81cd4:	913a4000 	add	x0, x0, #0xe90
   81cd8:	b900141f 	str	wzr, [x0, #20]
   81cdc:	f0000000 	adrp	x0, 84000 <fonts_init+0x2930>
   81ce0:	913a4000 	add	x0, x0, #0xe90
   81ce4:	128000a1 	mov	w1, #0xfffffffa            	// #-6
   81ce8:	b9001801 	str	w1, [x0, #24]
   81cec:	f0000000 	adrp	x0, 84000 <fonts_init+0x2930>
   81cf0:	913a4000 	add	x0, x0, #0xe90
   81cf4:	52800081 	mov	w1, #0x4                   	// #4
   81cf8:	b9001c01 	str	w1, [x0, #28]
   81cfc:	f0000000 	adrp	x0, 84000 <fonts_init+0x2930>
   81d00:	913a4000 	add	x0, x0, #0xe90
   81d04:	128000a1 	mov	w1, #0xfffffffa            	// #-6
   81d08:	b9002001 	str	w1, [x0, #32]
   81d0c:	f0000000 	adrp	x0, 84000 <fonts_init+0x2930>
   81d10:	913a4000 	add	x0, x0, #0xe90
   81d14:	b900241f 	str	wzr, [x0, #36]
   81d18:	f0000000 	adrp	x0, 84000 <fonts_init+0x2930>
   81d1c:	913a4000 	add	x0, x0, #0xe90
   81d20:	12800041 	mov	w1, #0xfffffffd            	// #-3
   81d24:	b9002801 	str	w1, [x0, #40]
   81d28:	f0000000 	adrp	x0, 84000 <fonts_init+0x2930>
   81d2c:	913a4000 	add	x0, x0, #0xe90
   81d30:	52800081 	mov	w1, #0x4                   	// #4
   81d34:	b9002c01 	str	w1, [x0, #44]
   81d38:	f0000000 	adrp	x0, 84000 <fonts_init+0x2930>
   81d3c:	913a4000 	add	x0, x0, #0xe90
   81d40:	12800041 	mov	w1, #0xfffffffd            	// #-3
   81d44:	b9003001 	str	w1, [x0, #48]
   81d48:	f0000000 	adrp	x0, 84000 <fonts_init+0x2930>
   81d4c:	913a4000 	add	x0, x0, #0xe90
   81d50:	b900341f 	str	wzr, [x0, #52]
   81d54:	f0000000 	adrp	x0, 84000 <fonts_init+0x2930>
   81d58:	913a4000 	add	x0, x0, #0xe90
   81d5c:	128000a1 	mov	w1, #0xfffffffa            	// #-6
   81d60:	b9003801 	str	w1, [x0, #56]
   81d64:	f0000000 	adrp	x0, 84000 <fonts_init+0x2930>
   81d68:	913a4000 	add	x0, x0, #0xe90
   81d6c:	b9003c1f 	str	wzr, [x0, #60]
   81d70:	f0000000 	adrp	x0, 84000 <fonts_init+0x2930>
   81d74:	913a4000 	add	x0, x0, #0xe90
   81d78:	b900401f 	str	wzr, [x0, #64]
   81d7c:	f0000000 	adrp	x0, 84000 <fonts_init+0x2930>
   81d80:	913be001 	add	x1, x0, #0xef8
   81d84:	d2838000 	mov	x0, #0x1c00                	// #7168
   81d88:	8b000020 	add	x0, x1, x0
   81d8c:	d1043002 	sub	x2, x0, #0x10c
   81d90:	f0000000 	adrp	x0, 84000 <fonts_init+0x2930>
   81d94:	913a4001 	add	x1, x0, #0xe90
   81d98:	aa0203e0 	mov	x0, x2
   81d9c:	a9400c22 	ldp	x2, x3, [x1]
   81da0:	a9000c02 	stp	x2, x3, [x0]
   81da4:	a9410c22 	ldp	x2, x3, [x1, #16]
   81da8:	a9010c02 	stp	x2, x3, [x0, #16]
   81dac:	a9420c22 	ldp	x2, x3, [x1, #32]
   81db0:	a9020c02 	stp	x2, x3, [x0, #32]
   81db4:	a9430c22 	ldp	x2, x3, [x1, #48]
   81db8:	a9030c02 	stp	x2, x3, [x0, #48]
   81dbc:	a9440c22 	ldp	x2, x3, [x1, #64]
   81dc0:	a9040c02 	stp	x2, x3, [x0, #64]
   81dc4:	a9450c22 	ldp	x2, x3, [x1, #80]
   81dc8:	a9050c02 	stp	x2, x3, [x0, #80]
   81dcc:	b9406021 	ldr	w1, [x1, #96]
   81dd0:	b9006001 	str	w1, [x0, #96]
   81dd4:	f0000000 	adrp	x0, 84000 <fonts_init+0x2930>
   81dd8:	913a4000 	add	x0, x0, #0xe90
   81ddc:	52800061 	mov	w1, #0x3                   	// #3
   81de0:	b9000001 	str	w1, [x0]
   81de4:	f0000000 	adrp	x0, 84000 <fonts_init+0x2930>
   81de8:	913a4000 	add	x0, x0, #0xe90
   81dec:	b900041f 	str	wzr, [x0, #4]
   81df0:	f0000000 	adrp	x0, 84000 <fonts_init+0x2930>
   81df4:	913a4000 	add	x0, x0, #0xe90
   81df8:	128000a1 	mov	w1, #0xfffffffa            	// #-6
   81dfc:	b9000801 	str	w1, [x0, #8]
   81e00:	f0000000 	adrp	x0, 84000 <fonts_init+0x2930>
   81e04:	913a4000 	add	x0, x0, #0xe90
   81e08:	52800081 	mov	w1, #0x4                   	// #4
   81e0c:	b9000c01 	str	w1, [x0, #12]
   81e10:	f0000000 	adrp	x0, 84000 <fonts_init+0x2930>
   81e14:	913a4000 	add	x0, x0, #0xe90
   81e18:	128000a1 	mov	w1, #0xfffffffa            	// #-6
   81e1c:	b9001001 	str	w1, [x0, #16]
   81e20:	f0000000 	adrp	x0, 84000 <fonts_init+0x2930>
   81e24:	913a4000 	add	x0, x0, #0xe90
   81e28:	b900141f 	str	wzr, [x0, #20]
   81e2c:	f0000000 	adrp	x0, 84000 <fonts_init+0x2930>
   81e30:	913a4000 	add	x0, x0, #0xe90
   81e34:	12800041 	mov	w1, #0xfffffffd            	// #-3
   81e38:	b9001801 	str	w1, [x0, #24]
   81e3c:	f0000000 	adrp	x0, 84000 <fonts_init+0x2930>
   81e40:	913a4000 	add	x0, x0, #0xe90
   81e44:	52800081 	mov	w1, #0x4                   	// #4
   81e48:	b9001c01 	str	w1, [x0, #28]
   81e4c:	f0000000 	adrp	x0, 84000 <fonts_init+0x2930>
   81e50:	913a4000 	add	x0, x0, #0xe90
   81e54:	12800041 	mov	w1, #0xfffffffd            	// #-3
   81e58:	b9002001 	str	w1, [x0, #32]
   81e5c:	f0000000 	adrp	x0, 84000 <fonts_init+0x2930>
   81e60:	913a4000 	add	x0, x0, #0xe90
   81e64:	b900241f 	str	wzr, [x0, #36]
   81e68:	f0000000 	adrp	x0, 84000 <fonts_init+0x2930>
   81e6c:	913a4000 	add	x0, x0, #0xe90
   81e70:	128000a1 	mov	w1, #0xfffffffa            	// #-6
   81e74:	b9002801 	str	w1, [x0, #40]
   81e78:	f0000000 	adrp	x0, 84000 <fonts_init+0x2930>
   81e7c:	913a4000 	add	x0, x0, #0xe90
   81e80:	b9002c1f 	str	wzr, [x0, #44]
   81e84:	f0000000 	adrp	x0, 84000 <fonts_init+0x2930>
   81e88:	913a4000 	add	x0, x0, #0xe90
   81e8c:	b900301f 	str	wzr, [x0, #48]
   81e90:	f0000000 	adrp	x0, 84000 <fonts_init+0x2930>
   81e94:	913be001 	add	x1, x0, #0xef8
   81e98:	d2838000 	mov	x0, #0x1c00                	// #7168
   81e9c:	8b000020 	add	x0, x1, x0
   81ea0:	d102a002 	sub	x2, x0, #0xa8
   81ea4:	f0000000 	adrp	x0, 84000 <fonts_init+0x2930>
   81ea8:	913a4001 	add	x1, x0, #0xe90
   81eac:	aa0203e0 	mov	x0, x2
   81eb0:	a9400c22 	ldp	x2, x3, [x1]
   81eb4:	a9000c02 	stp	x2, x3, [x0]
   81eb8:	a9410c22 	ldp	x2, x3, [x1, #16]
   81ebc:	a9010c02 	stp	x2, x3, [x0, #16]
   81ec0:	a9420c22 	ldp	x2, x3, [x1, #32]
   81ec4:	a9020c02 	stp	x2, x3, [x0, #32]
   81ec8:	a9430c22 	ldp	x2, x3, [x1, #48]
   81ecc:	a9030c02 	stp	x2, x3, [x0, #48]
   81ed0:	a9440c22 	ldp	x2, x3, [x1, #64]
   81ed4:	a9040c02 	stp	x2, x3, [x0, #64]
   81ed8:	a9450c22 	ldp	x2, x3, [x1, #80]
   81edc:	a9050c02 	stp	x2, x3, [x0, #80]
   81ee0:	b9406021 	ldr	w1, [x1, #96]
   81ee4:	b9006001 	str	w1, [x0, #96]
   81ee8:	f0000000 	adrp	x0, 84000 <fonts_init+0x2930>
   81eec:	913a4000 	add	x0, x0, #0xe90
   81ef0:	528000a1 	mov	w1, #0x5                   	// #5
   81ef4:	b9000001 	str	w1, [x0]
   81ef8:	f0000000 	adrp	x0, 84000 <fonts_init+0x2930>
   81efc:	913a4000 	add	x0, x0, #0xe90
   81f00:	b900041f 	str	wzr, [x0, #4]
   81f04:	f0000000 	adrp	x0, 84000 <fonts_init+0x2930>
   81f08:	913a4000 	add	x0, x0, #0xe90
   81f0c:	b900081f 	str	wzr, [x0, #8]
   81f10:	f0000000 	adrp	x0, 84000 <fonts_init+0x2930>
   81f14:	913a4000 	add	x0, x0, #0xe90
   81f18:	52800081 	mov	w1, #0x4                   	// #4
   81f1c:	b9000c01 	str	w1, [x0, #12]
   81f20:	f0000000 	adrp	x0, 84000 <fonts_init+0x2930>
   81f24:	913a4000 	add	x0, x0, #0xe90
   81f28:	b900101f 	str	wzr, [x0, #16]
   81f2c:	f0000000 	adrp	x0, 84000 <fonts_init+0x2930>
   81f30:	913a4000 	add	x0, x0, #0xe90
   81f34:	b900141f 	str	wzr, [x0, #20]
   81f38:	f0000000 	adrp	x0, 84000 <fonts_init+0x2930>
   81f3c:	913a4000 	add	x0, x0, #0xe90
   81f40:	128000a1 	mov	w1, #0xfffffffa            	// #-6
   81f44:	b9001801 	str	w1, [x0, #24]
   81f48:	f0000000 	adrp	x0, 84000 <fonts_init+0x2930>
   81f4c:	913a4000 	add	x0, x0, #0xe90
   81f50:	52800081 	mov	w1, #0x4                   	// #4
   81f54:	b9001c01 	str	w1, [x0, #28]
   81f58:	f0000000 	adrp	x0, 84000 <fonts_init+0x2930>
   81f5c:	913a4000 	add	x0, x0, #0xe90
   81f60:	128000a1 	mov	w1, #0xfffffffa            	// #-6
   81f64:	b9002001 	str	w1, [x0, #32]
   81f68:	f0000000 	adrp	x0, 84000 <fonts_init+0x2930>
   81f6c:	913a4000 	add	x0, x0, #0xe90
   81f70:	b900241f 	str	wzr, [x0, #36]
   81f74:	f0000000 	adrp	x0, 84000 <fonts_init+0x2930>
   81f78:	913a4000 	add	x0, x0, #0xe90
   81f7c:	12800041 	mov	w1, #0xfffffffd            	// #-3
   81f80:	b9002801 	str	w1, [x0, #40]
   81f84:	f0000000 	adrp	x0, 84000 <fonts_init+0x2930>
   81f88:	913a4000 	add	x0, x0, #0xe90
   81f8c:	52800081 	mov	w1, #0x4                   	// #4
   81f90:	b9002c01 	str	w1, [x0, #44]
   81f94:	f0000000 	adrp	x0, 84000 <fonts_init+0x2930>
   81f98:	913a4000 	add	x0, x0, #0xe90
   81f9c:	12800041 	mov	w1, #0xfffffffd            	// #-3
   81fa0:	b9003001 	str	w1, [x0, #48]
   81fa4:	f0000000 	adrp	x0, 84000 <fonts_init+0x2930>
   81fa8:	913a4000 	add	x0, x0, #0xe90
   81fac:	b900341f 	str	wzr, [x0, #52]
   81fb0:	f0000000 	adrp	x0, 84000 <fonts_init+0x2930>
   81fb4:	913a4000 	add	x0, x0, #0xe90
   81fb8:	128000a1 	mov	w1, #0xfffffffa            	// #-6
   81fbc:	b9003801 	str	w1, [x0, #56]
   81fc0:	f0000000 	adrp	x0, 84000 <fonts_init+0x2930>
   81fc4:	913a4000 	add	x0, x0, #0xe90
   81fc8:	b9003c1f 	str	wzr, [x0, #60]
   81fcc:	f0000000 	adrp	x0, 84000 <fonts_init+0x2930>
   81fd0:	913a4000 	add	x0, x0, #0xe90
   81fd4:	b900401f 	str	wzr, [x0, #64]
   81fd8:	f0000000 	adrp	x0, 84000 <fonts_init+0x2930>
   81fdc:	913a4000 	add	x0, x0, #0xe90
   81fe0:	52800081 	mov	w1, #0x4                   	// #4
   81fe4:	b9004401 	str	w1, [x0, #68]
   81fe8:	f0000000 	adrp	x0, 84000 <fonts_init+0x2930>
   81fec:	913a4000 	add	x0, x0, #0xe90
   81ff0:	b900481f 	str	wzr, [x0, #72]
   81ff4:	f0000000 	adrp	x0, 84000 <fonts_init+0x2930>
   81ff8:	913a4000 	add	x0, x0, #0xe90
   81ffc:	52800081 	mov	w1, #0x4                   	// #4
   82000:	b9004c01 	str	w1, [x0, #76]
   82004:	d0000000 	adrp	x0, 84000 <fonts_init+0x2930>
   82008:	913a4000 	add	x0, x0, #0xe90
   8200c:	12800041 	mov	w1, #0xfffffffd            	// #-3
   82010:	b9005001 	str	w1, [x0, #80]
   82014:	d0000000 	adrp	x0, 84000 <fonts_init+0x2930>
   82018:	913be001 	add	x1, x0, #0xef8
   8201c:	d2838000 	mov	x0, #0x1c00                	// #7168
   82020:	8b000020 	add	x0, x1, x0
   82024:	d1011002 	sub	x2, x0, #0x44
   82028:	d0000000 	adrp	x0, 84000 <fonts_init+0x2930>
   8202c:	913a4001 	add	x1, x0, #0xe90
   82030:	aa0203e0 	mov	x0, x2
   82034:	a9400c22 	ldp	x2, x3, [x1]
   82038:	a9000c02 	stp	x2, x3, [x0]
   8203c:	a9410c22 	ldp	x2, x3, [x1, #16]
   82040:	a9010c02 	stp	x2, x3, [x0, #16]
   82044:	a9420c22 	ldp	x2, x3, [x1, #32]
   82048:	a9020c02 	stp	x2, x3, [x0, #32]
   8204c:	a9430c22 	ldp	x2, x3, [x1, #48]
   82050:	a9030c02 	stp	x2, x3, [x0, #48]
   82054:	a9440c22 	ldp	x2, x3, [x1, #64]
   82058:	a9040c02 	stp	x2, x3, [x0, #64]
   8205c:	a9450c22 	ldp	x2, x3, [x1, #80]
   82060:	a9050c02 	stp	x2, x3, [x0, #80]
   82064:	b9406021 	ldr	w1, [x1, #96]
   82068:	b9006001 	str	w1, [x0, #96]
   8206c:	d0000000 	adrp	x0, 84000 <fonts_init+0x2930>
   82070:	913a4000 	add	x0, x0, #0xe90
   82074:	52800061 	mov	w1, #0x3                   	// #3
   82078:	b9000001 	str	w1, [x0]
   8207c:	d0000000 	adrp	x0, 84000 <fonts_init+0x2930>
   82080:	913a4000 	add	x0, x0, #0xe90
   82084:	b900041f 	str	wzr, [x0, #4]
   82088:	d0000000 	adrp	x0, 84000 <fonts_init+0x2930>
   8208c:	913a4000 	add	x0, x0, #0xe90
   82090:	b900081f 	str	wzr, [x0, #8]
   82094:	d0000000 	adrp	x0, 84000 <fonts_init+0x2930>
   82098:	913a4000 	add	x0, x0, #0xe90
   8209c:	b9000c1f 	str	wzr, [x0, #12]
   820a0:	d0000000 	adrp	x0, 84000 <fonts_init+0x2930>
   820a4:	913a4000 	add	x0, x0, #0xe90
   820a8:	128000a1 	mov	w1, #0xfffffffa            	// #-6
   820ac:	b9001001 	str	w1, [x0, #16]
   820b0:	d0000000 	adrp	x0, 84000 <fonts_init+0x2930>
   820b4:	913a4000 	add	x0, x0, #0xe90
   820b8:	52800081 	mov	w1, #0x4                   	// #4
   820bc:	b9001401 	str	w1, [x0, #20]
   820c0:	d0000000 	adrp	x0, 84000 <fonts_init+0x2930>
   820c4:	913a4000 	add	x0, x0, #0xe90
   820c8:	128000a1 	mov	w1, #0xfffffffa            	// #-6
   820cc:	b9001801 	str	w1, [x0, #24]
   820d0:	d0000000 	adrp	x0, 84000 <fonts_init+0x2930>
   820d4:	913a4000 	add	x0, x0, #0xe90
   820d8:	52800081 	mov	w1, #0x4                   	// #4
   820dc:	b9001c01 	str	w1, [x0, #28]
   820e0:	d0000000 	adrp	x0, 84000 <fonts_init+0x2930>
   820e4:	913a4000 	add	x0, x0, #0xe90
   820e8:	b900201f 	str	wzr, [x0, #32]
   820ec:	d0000000 	adrp	x0, 84000 <fonts_init+0x2930>
   820f0:	913a4000 	add	x0, x0, #0xe90
   820f4:	b900241f 	str	wzr, [x0, #36]
   820f8:	d0000000 	adrp	x0, 84000 <fonts_init+0x2930>
   820fc:	913a4000 	add	x0, x0, #0xe90
   82100:	12800041 	mov	w1, #0xfffffffd            	// #-3
   82104:	b9002801 	str	w1, [x0, #40]
   82108:	d0000000 	adrp	x0, 84000 <fonts_init+0x2930>
   8210c:	913a4000 	add	x0, x0, #0xe90
   82110:	52800081 	mov	w1, #0x4                   	// #4
   82114:	b9002c01 	str	w1, [x0, #44]
   82118:	d0000000 	adrp	x0, 84000 <fonts_init+0x2930>
   8211c:	913a4000 	add	x0, x0, #0xe90
   82120:	12800041 	mov	w1, #0xfffffffd            	// #-3
   82124:	b9003001 	str	w1, [x0, #48]
   82128:	d0000000 	adrp	x0, 84000 <fonts_init+0x2930>
   8212c:	913be001 	add	x1, x0, #0xef8
   82130:	d2838000 	mov	x0, #0x1c00                	// #7168
   82134:	8b000020 	add	x0, x1, x0
   82138:	91008002 	add	x2, x0, #0x20
   8213c:	d0000000 	adrp	x0, 84000 <fonts_init+0x2930>
   82140:	913a4001 	add	x1, x0, #0xe90
   82144:	aa0203e0 	mov	x0, x2
   82148:	a9400c22 	ldp	x2, x3, [x1]
   8214c:	a9000c02 	stp	x2, x3, [x0]
   82150:	a9410c22 	ldp	x2, x3, [x1, #16]
   82154:	a9010c02 	stp	x2, x3, [x0, #16]
   82158:	a9420c22 	ldp	x2, x3, [x1, #32]
   8215c:	a9020c02 	stp	x2, x3, [x0, #32]
   82160:	a9430c22 	ldp	x2, x3, [x1, #48]
   82164:	a9030c02 	stp	x2, x3, [x0, #48]
   82168:	a9440c22 	ldp	x2, x3, [x1, #64]
   8216c:	a9040c02 	stp	x2, x3, [x0, #64]
   82170:	a9450c22 	ldp	x2, x3, [x1, #80]
   82174:	a9050c02 	stp	x2, x3, [x0, #80]
   82178:	b9406021 	ldr	w1, [x1, #96]
   8217c:	b9006001 	str	w1, [x0, #96]
   82180:	d0000000 	adrp	x0, 84000 <fonts_init+0x2930>
   82184:	913a4000 	add	x0, x0, #0xe90
   82188:	52800061 	mov	w1, #0x3                   	// #3
   8218c:	b9000001 	str	w1, [x0]
   82190:	d0000000 	adrp	x0, 84000 <fonts_init+0x2930>
   82194:	913a4000 	add	x0, x0, #0xe90
   82198:	b900041f 	str	wzr, [x0, #4]
   8219c:	d0000000 	adrp	x0, 84000 <fonts_init+0x2930>
   821a0:	913a4000 	add	x0, x0, #0xe90
   821a4:	b900081f 	str	wzr, [x0, #8]
   821a8:	d0000000 	adrp	x0, 84000 <fonts_init+0x2930>
   821ac:	913a4000 	add	x0, x0, #0xe90
   821b0:	52800081 	mov	w1, #0x4                   	// #4
   821b4:	b9000c01 	str	w1, [x0, #12]
   821b8:	d0000000 	adrp	x0, 84000 <fonts_init+0x2930>
   821bc:	913a4000 	add	x0, x0, #0xe90
   821c0:	b900101f 	str	wzr, [x0, #16]
   821c4:	d0000000 	adrp	x0, 84000 <fonts_init+0x2930>
   821c8:	913a4000 	add	x0, x0, #0xe90
   821cc:	b900141f 	str	wzr, [x0, #20]
   821d0:	d0000000 	adrp	x0, 84000 <fonts_init+0x2930>
   821d4:	913a4000 	add	x0, x0, #0xe90
   821d8:	128000a1 	mov	w1, #0xfffffffa            	// #-6
   821dc:	b9001801 	str	w1, [x0, #24]
   821e0:	d0000000 	adrp	x0, 84000 <fonts_init+0x2930>
   821e4:	913a4000 	add	x0, x0, #0xe90
   821e8:	52800081 	mov	w1, #0x4                   	// #4
   821ec:	b9001c01 	str	w1, [x0, #28]
   821f0:	d0000000 	adrp	x0, 84000 <fonts_init+0x2930>
   821f4:	913a4000 	add	x0, x0, #0xe90
   821f8:	128000a1 	mov	w1, #0xfffffffa            	// #-6
   821fc:	b9002001 	str	w1, [x0, #32]
   82200:	d0000000 	adrp	x0, 84000 <fonts_init+0x2930>
   82204:	913a4000 	add	x0, x0, #0xe90
   82208:	52800041 	mov	w1, #0x2                   	// #2
   8220c:	b9002401 	str	w1, [x0, #36]
   82210:	d0000000 	adrp	x0, 84000 <fonts_init+0x2930>
   82214:	913a4000 	add	x0, x0, #0xe90
   82218:	128000a1 	mov	w1, #0xfffffffa            	// #-6
   8221c:	b9002801 	str	w1, [x0, #40]
   82220:	d0000000 	adrp	x0, 84000 <fonts_init+0x2930>
   82224:	913a4000 	add	x0, x0, #0xe90
   82228:	52800041 	mov	w1, #0x2                   	// #2
   8222c:	b9002c01 	str	w1, [x0, #44]
   82230:	d0000000 	adrp	x0, 84000 <fonts_init+0x2930>
   82234:	913a4000 	add	x0, x0, #0xe90
   82238:	b900301f 	str	wzr, [x0, #48]
   8223c:	d0000000 	adrp	x0, 84000 <fonts_init+0x2930>
   82240:	913be001 	add	x1, x0, #0xef8
   82244:	d2838000 	mov	x0, #0x1c00                	// #7168
   82248:	8b000020 	add	x0, x1, x0
   8224c:	91021002 	add	x2, x0, #0x84
   82250:	d0000000 	adrp	x0, 84000 <fonts_init+0x2930>
   82254:	913a4001 	add	x1, x0, #0xe90
   82258:	aa0203e0 	mov	x0, x2
   8225c:	a9400c22 	ldp	x2, x3, [x1]
   82260:	a9000c02 	stp	x2, x3, [x0]
   82264:	a9410c22 	ldp	x2, x3, [x1, #16]
   82268:	a9010c02 	stp	x2, x3, [x0, #16]
   8226c:	a9420c22 	ldp	x2, x3, [x1, #32]
   82270:	a9020c02 	stp	x2, x3, [x0, #32]
   82274:	a9430c22 	ldp	x2, x3, [x1, #48]
   82278:	a9030c02 	stp	x2, x3, [x0, #48]
   8227c:	a9440c22 	ldp	x2, x3, [x1, #64]
   82280:	a9040c02 	stp	x2, x3, [x0, #64]
   82284:	a9450c22 	ldp	x2, x3, [x1, #80]
   82288:	a9050c02 	stp	x2, x3, [x0, #80]
   8228c:	b9406021 	ldr	w1, [x1, #96]
   82290:	b9006001 	str	w1, [x0, #96]
   82294:	d0000000 	adrp	x0, 84000 <fonts_init+0x2930>
   82298:	913a4000 	add	x0, x0, #0xe90
   8229c:	52800061 	mov	w1, #0x3                   	// #3
   822a0:	b9000001 	str	w1, [x0]
   822a4:	d0000000 	adrp	x0, 84000 <fonts_init+0x2930>
   822a8:	913a4000 	add	x0, x0, #0xe90
   822ac:	b900041f 	str	wzr, [x0, #4]
   822b0:	d0000000 	adrp	x0, 84000 <fonts_init+0x2930>
   822b4:	913a4000 	add	x0, x0, #0xe90
   822b8:	b900081f 	str	wzr, [x0, #8]
   822bc:	d0000000 	adrp	x0, 84000 <fonts_init+0x2930>
   822c0:	913a4000 	add	x0, x0, #0xe90
   822c4:	b9000c1f 	str	wzr, [x0, #12]
   822c8:	d0000000 	adrp	x0, 84000 <fonts_init+0x2930>
   822cc:	913a4000 	add	x0, x0, #0xe90
   822d0:	128000a1 	mov	w1, #0xfffffffa            	// #-6
   822d4:	b9001001 	str	w1, [x0, #16]
   822d8:	d0000000 	adrp	x0, 84000 <fonts_init+0x2930>
   822dc:	913a4000 	add	x0, x0, #0xe90
   822e0:	b900141f 	str	wzr, [x0, #20]
   822e4:	d0000000 	adrp	x0, 84000 <fonts_init+0x2930>
   822e8:	913a4000 	add	x0, x0, #0xe90
   822ec:	12800041 	mov	w1, #0xfffffffd            	// #-3
   822f0:	b9001801 	str	w1, [x0, #24]
   822f4:	d0000000 	adrp	x0, 84000 <fonts_init+0x2930>
   822f8:	913a4000 	add	x0, x0, #0xe90
   822fc:	52800081 	mov	w1, #0x4                   	// #4
   82300:	b9001c01 	str	w1, [x0, #28]
   82304:	d0000000 	adrp	x0, 84000 <fonts_init+0x2930>
   82308:	913a4000 	add	x0, x0, #0xe90
   8230c:	128000a1 	mov	w1, #0xfffffffa            	// #-6
   82310:	b9002001 	str	w1, [x0, #32]
   82314:	d0000000 	adrp	x0, 84000 <fonts_init+0x2930>
   82318:	913a4000 	add	x0, x0, #0xe90
   8231c:	b900241f 	str	wzr, [x0, #36]
   82320:	d0000000 	adrp	x0, 84000 <fonts_init+0x2930>
   82324:	913a4000 	add	x0, x0, #0xe90
   82328:	12800041 	mov	w1, #0xfffffffd            	// #-3
   8232c:	b9002801 	str	w1, [x0, #40]
   82330:	d0000000 	adrp	x0, 84000 <fonts_init+0x2930>
   82334:	913a4000 	add	x0, x0, #0xe90
   82338:	52800081 	mov	w1, #0x4                   	// #4
   8233c:	b9002c01 	str	w1, [x0, #44]
   82340:	d0000000 	adrp	x0, 84000 <fonts_init+0x2930>
   82344:	913a4000 	add	x0, x0, #0xe90
   82348:	b900301f 	str	wzr, [x0, #48]
   8234c:	d0000000 	adrp	x0, 84000 <fonts_init+0x2930>
   82350:	913be001 	add	x1, x0, #0xef8
   82354:	d2838000 	mov	x0, #0x1c00                	// #7168
   82358:	8b000020 	add	x0, x1, x0
   8235c:	91053002 	add	x2, x0, #0x14c
   82360:	d0000000 	adrp	x0, 84000 <fonts_init+0x2930>
   82364:	913a4001 	add	x1, x0, #0xe90
   82368:	aa0203e0 	mov	x0, x2
   8236c:	a9400c22 	ldp	x2, x3, [x1]
   82370:	a9000c02 	stp	x2, x3, [x0]
   82374:	a9410c22 	ldp	x2, x3, [x1, #16]
   82378:	a9010c02 	stp	x2, x3, [x0, #16]
   8237c:	a9420c22 	ldp	x2, x3, [x1, #32]
   82380:	a9020c02 	stp	x2, x3, [x0, #32]
   82384:	a9430c22 	ldp	x2, x3, [x1, #48]
   82388:	a9030c02 	stp	x2, x3, [x0, #48]
   8238c:	a9440c22 	ldp	x2, x3, [x1, #64]
   82390:	a9040c02 	stp	x2, x3, [x0, #64]
   82394:	a9450c22 	ldp	x2, x3, [x1, #80]
   82398:	a9050c02 	stp	x2, x3, [x0, #80]
   8239c:	b9406021 	ldr	w1, [x1, #96]
   823a0:	b9006001 	str	w1, [x0, #96]
   823a4:	d0000000 	adrp	x0, 84000 <fonts_init+0x2930>
   823a8:	913a4000 	add	x0, x0, #0xe90
   823ac:	52800041 	mov	w1, #0x2                   	// #2
   823b0:	b9000001 	str	w1, [x0]
   823b4:	d0000000 	adrp	x0, 84000 <fonts_init+0x2930>
   823b8:	913a4000 	add	x0, x0, #0xe90
   823bc:	b900041f 	str	wzr, [x0, #4]
   823c0:	d0000000 	adrp	x0, 84000 <fonts_init+0x2930>
   823c4:	913a4000 	add	x0, x0, #0xe90
   823c8:	b900081f 	str	wzr, [x0, #8]
   823cc:	d0000000 	adrp	x0, 84000 <fonts_init+0x2930>
   823d0:	913a4000 	add	x0, x0, #0xe90
   823d4:	52800081 	mov	w1, #0x4                   	// #4
   823d8:	b9000c01 	str	w1, [x0, #12]
   823dc:	d0000000 	adrp	x0, 84000 <fonts_init+0x2930>
   823e0:	913a4000 	add	x0, x0, #0xe90
   823e4:	b900101f 	str	wzr, [x0, #16]
   823e8:	d0000000 	adrp	x0, 84000 <fonts_init+0x2930>
   823ec:	913a4000 	add	x0, x0, #0xe90
   823f0:	b900141f 	str	wzr, [x0, #20]
   823f4:	d0000000 	adrp	x0, 84000 <fonts_init+0x2930>
   823f8:	913a4000 	add	x0, x0, #0xe90
   823fc:	128000a1 	mov	w1, #0xfffffffa            	// #-6
   82400:	b9001801 	str	w1, [x0, #24]
   82404:	d0000000 	adrp	x0, 84000 <fonts_init+0x2930>
   82408:	913a4000 	add	x0, x0, #0xe90
   8240c:	b9001c1f 	str	wzr, [x0, #28]
   82410:	d0000000 	adrp	x0, 84000 <fonts_init+0x2930>
   82414:	913a4000 	add	x0, x0, #0xe90
   82418:	b900201f 	str	wzr, [x0, #32]
   8241c:	d0000000 	adrp	x0, 84000 <fonts_init+0x2930>
   82420:	913be001 	add	x1, x0, #0xef8
   82424:	d2838000 	mov	x0, #0x1c00                	// #7168
   82428:	8b000020 	add	x0, x1, x0
   8242c:	9106c002 	add	x2, x0, #0x1b0
   82430:	d0000000 	adrp	x0, 84000 <fonts_init+0x2930>
   82434:	913a4001 	add	x1, x0, #0xe90
   82438:	aa0203e0 	mov	x0, x2
   8243c:	a9400c22 	ldp	x2, x3, [x1]
   82440:	a9000c02 	stp	x2, x3, [x0]
   82444:	a9410c22 	ldp	x2, x3, [x1, #16]
   82448:	a9010c02 	stp	x2, x3, [x0, #16]
   8244c:	a9420c22 	ldp	x2, x3, [x1, #32]
   82450:	a9020c02 	stp	x2, x3, [x0, #32]
   82454:	a9430c22 	ldp	x2, x3, [x1, #48]
   82458:	a9030c02 	stp	x2, x3, [x0, #48]
   8245c:	a9440c22 	ldp	x2, x3, [x1, #64]
   82460:	a9040c02 	stp	x2, x3, [x0, #64]
   82464:	a9450c22 	ldp	x2, x3, [x1, #80]
   82468:	a9050c02 	stp	x2, x3, [x0, #80]
   8246c:	b9406021 	ldr	w1, [x1, #96]
   82470:	b9006001 	str	w1, [x0, #96]
   82474:	d0000000 	adrp	x0, 84000 <fonts_init+0x2930>
   82478:	913a4000 	add	x0, x0, #0xe90
   8247c:	52800081 	mov	w1, #0x4                   	// #4
   82480:	b9000001 	str	w1, [x0]
   82484:	d0000000 	adrp	x0, 84000 <fonts_init+0x2930>
   82488:	913a4000 	add	x0, x0, #0xe90
   8248c:	b900041f 	str	wzr, [x0, #4]
   82490:	d0000000 	adrp	x0, 84000 <fonts_init+0x2930>
   82494:	913a4000 	add	x0, x0, #0xe90
   82498:	128000a1 	mov	w1, #0xfffffffa            	// #-6
   8249c:	b9000801 	str	w1, [x0, #8]
   824a0:	d0000000 	adrp	x0, 84000 <fonts_init+0x2930>
   824a4:	913a4000 	add	x0, x0, #0xe90
   824a8:	b9000c1f 	str	wzr, [x0, #12]
   824ac:	d0000000 	adrp	x0, 84000 <fonts_init+0x2930>
   824b0:	913a4000 	add	x0, x0, #0xe90
   824b4:	b900101f 	str	wzr, [x0, #16]
   824b8:	d0000000 	adrp	x0, 84000 <fonts_init+0x2930>
   824bc:	913a4000 	add	x0, x0, #0xe90
   824c0:	b900141f 	str	wzr, [x0, #20]
   824c4:	d0000000 	adrp	x0, 84000 <fonts_init+0x2930>
   824c8:	913a4000 	add	x0, x0, #0xe90
   824cc:	128000a1 	mov	w1, #0xfffffffa            	// #-6
   824d0:	b9001801 	str	w1, [x0, #24]
   824d4:	d0000000 	adrp	x0, 84000 <fonts_init+0x2930>
   824d8:	913a4000 	add	x0, x0, #0xe90
   824dc:	52800041 	mov	w1, #0x2                   	// #2
   824e0:	b9001c01 	str	w1, [x0, #28]
   824e4:	d0000000 	adrp	x0, 84000 <fonts_init+0x2930>
   824e8:	913a4000 	add	x0, x0, #0xe90
   824ec:	12800001 	mov	w1, #0xffffffff            	// #-1
   824f0:	b9002001 	str	w1, [x0, #32]
   824f4:	d0000000 	adrp	x0, 84000 <fonts_init+0x2930>
   824f8:	913a4000 	add	x0, x0, #0xe90
   824fc:	52800041 	mov	w1, #0x2                   	// #2
   82500:	b9002401 	str	w1, [x0, #36]
   82504:	d0000000 	adrp	x0, 84000 <fonts_init+0x2930>
   82508:	913a4000 	add	x0, x0, #0xe90
   8250c:	12800001 	mov	w1, #0xffffffff            	// #-1
   82510:	b9002801 	str	w1, [x0, #40]
   82514:	d0000000 	adrp	x0, 84000 <fonts_init+0x2930>
   82518:	913a4000 	add	x0, x0, #0xe90
   8251c:	52800081 	mov	w1, #0x4                   	// #4
   82520:	b9002c01 	str	w1, [x0, #44]
   82524:	d0000000 	adrp	x0, 84000 <fonts_init+0x2930>
   82528:	913a4000 	add	x0, x0, #0xe90
   8252c:	128000a1 	mov	w1, #0xfffffffa            	// #-6
   82530:	b9003001 	str	w1, [x0, #48]
   82534:	d0000000 	adrp	x0, 84000 <fonts_init+0x2930>
   82538:	913a4000 	add	x0, x0, #0xe90
   8253c:	52800081 	mov	w1, #0x4                   	// #4
   82540:	b9003401 	str	w1, [x0, #52]
   82544:	d0000000 	adrp	x0, 84000 <fonts_init+0x2930>
   82548:	913a4000 	add	x0, x0, #0xe90
   8254c:	128000a1 	mov	w1, #0xfffffffa            	// #-6
   82550:	b9003801 	str	w1, [x0, #56]
   82554:	d0000000 	adrp	x0, 84000 <fonts_init+0x2930>
   82558:	913a4000 	add	x0, x0, #0xe90
   8255c:	52800081 	mov	w1, #0x4                   	// #4
   82560:	b9003c01 	str	w1, [x0, #60]
   82564:	d0000000 	adrp	x0, 84000 <fonts_init+0x2930>
   82568:	913a4000 	add	x0, x0, #0xe90
   8256c:	b900401f 	str	wzr, [x0, #64]
   82570:	d0000000 	adrp	x0, 84000 <fonts_init+0x2930>
   82574:	913be000 	add	x0, x0, #0xef8
   82578:	91400800 	add	x0, x0, #0x2, lsl #12
   8257c:	d107b002 	sub	x2, x0, #0x1ec
   82580:	d0000000 	adrp	x0, 84000 <fonts_init+0x2930>
   82584:	913a4001 	add	x1, x0, #0xe90
   82588:	aa0203e0 	mov	x0, x2
   8258c:	a9400c22 	ldp	x2, x3, [x1]
   82590:	a9000c02 	stp	x2, x3, [x0]
   82594:	a9410c22 	ldp	x2, x3, [x1, #16]
   82598:	a9010c02 	stp	x2, x3, [x0, #16]
   8259c:	a9420c22 	ldp	x2, x3, [x1, #32]
   825a0:	a9020c02 	stp	x2, x3, [x0, #32]
   825a4:	a9430c22 	ldp	x2, x3, [x1, #48]
   825a8:	a9030c02 	stp	x2, x3, [x0, #48]
   825ac:	a9440c22 	ldp	x2, x3, [x1, #64]
   825b0:	a9040c02 	stp	x2, x3, [x0, #64]
   825b4:	a9450c22 	ldp	x2, x3, [x1, #80]
   825b8:	a9050c02 	stp	x2, x3, [x0, #80]
   825bc:	b9406021 	ldr	w1, [x1, #96]
   825c0:	b9006001 	str	w1, [x0, #96]
   825c4:	d0000000 	adrp	x0, 84000 <fonts_init+0x2930>
   825c8:	913a4000 	add	x0, x0, #0xe90
   825cc:	52800061 	mov	w1, #0x3                   	// #3
   825d0:	b9000001 	str	w1, [x0]
   825d4:	d0000000 	adrp	x0, 84000 <fonts_init+0x2930>
   825d8:	913a4000 	add	x0, x0, #0xe90
   825dc:	b900041f 	str	wzr, [x0, #4]
   825e0:	d0000000 	adrp	x0, 84000 <fonts_init+0x2930>
   825e4:	913a4000 	add	x0, x0, #0xe90
   825e8:	128000a1 	mov	w1, #0xfffffffa            	// #-6
   825ec:	b9000801 	str	w1, [x0, #8]
   825f0:	d0000000 	adrp	x0, 84000 <fonts_init+0x2930>
   825f4:	913a4000 	add	x0, x0, #0xe90
   825f8:	b9000c1f 	str	wzr, [x0, #12]
   825fc:	d0000000 	adrp	x0, 84000 <fonts_init+0x2930>
   82600:	913a4000 	add	x0, x0, #0xe90
   82604:	b900101f 	str	wzr, [x0, #16]
   82608:	d0000000 	adrp	x0, 84000 <fonts_init+0x2930>
   8260c:	913a4000 	add	x0, x0, #0xe90
   82610:	b900141f 	str	wzr, [x0, #20]
   82614:	d0000000 	adrp	x0, 84000 <fonts_init+0x2930>
   82618:	913a4000 	add	x0, x0, #0xe90
   8261c:	128000a1 	mov	w1, #0xfffffffa            	// #-6
   82620:	b9001801 	str	w1, [x0, #24]
   82624:	d0000000 	adrp	x0, 84000 <fonts_init+0x2930>
   82628:	913a4000 	add	x0, x0, #0xe90
   8262c:	52800081 	mov	w1, #0x4                   	// #4
   82630:	b9001c01 	str	w1, [x0, #28]
   82634:	d0000000 	adrp	x0, 84000 <fonts_init+0x2930>
   82638:	913a4000 	add	x0, x0, #0xe90
   8263c:	b900201f 	str	wzr, [x0, #32]
   82640:	d0000000 	adrp	x0, 84000 <fonts_init+0x2930>
   82644:	913a4000 	add	x0, x0, #0xe90
   82648:	52800081 	mov	w1, #0x4                   	// #4
   8264c:	b9002401 	str	w1, [x0, #36]
   82650:	d0000000 	adrp	x0, 84000 <fonts_init+0x2930>
   82654:	913a4000 	add	x0, x0, #0xe90
   82658:	b900281f 	str	wzr, [x0, #40]
   8265c:	d0000000 	adrp	x0, 84000 <fonts_init+0x2930>
   82660:	913a4000 	add	x0, x0, #0xe90
   82664:	52800081 	mov	w1, #0x4                   	// #4
   82668:	b9002c01 	str	w1, [x0, #44]
   8266c:	d0000000 	adrp	x0, 84000 <fonts_init+0x2930>
   82670:	913a4000 	add	x0, x0, #0xe90
   82674:	128000a1 	mov	w1, #0xfffffffa            	// #-6
   82678:	b9003001 	str	w1, [x0, #48]
   8267c:	d0000000 	adrp	x0, 84000 <fonts_init+0x2930>
   82680:	913be000 	add	x0, x0, #0xef8
   82684:	91400800 	add	x0, x0, #0x2, lsl #12
   82688:	d1062002 	sub	x2, x0, #0x188
   8268c:	d0000000 	adrp	x0, 84000 <fonts_init+0x2930>
   82690:	913a4001 	add	x1, x0, #0xe90
   82694:	aa0203e0 	mov	x0, x2
   82698:	a9400c22 	ldp	x2, x3, [x1]
   8269c:	a9000c02 	stp	x2, x3, [x0]
   826a0:	a9410c22 	ldp	x2, x3, [x1, #16]
   826a4:	a9010c02 	stp	x2, x3, [x0, #16]
   826a8:	a9420c22 	ldp	x2, x3, [x1, #32]
   826ac:	a9020c02 	stp	x2, x3, [x0, #32]
   826b0:	a9430c22 	ldp	x2, x3, [x1, #48]
   826b4:	a9030c02 	stp	x2, x3, [x0, #48]
   826b8:	a9440c22 	ldp	x2, x3, [x1, #64]
   826bc:	a9040c02 	stp	x2, x3, [x0, #64]
   826c0:	a9450c22 	ldp	x2, x3, [x1, #80]
   826c4:	a9050c02 	stp	x2, x3, [x0, #80]
   826c8:	b9406021 	ldr	w1, [x1, #96]
   826cc:	b9006001 	str	w1, [x0, #96]
   826d0:	d0000000 	adrp	x0, 84000 <fonts_init+0x2930>
   826d4:	913a4000 	add	x0, x0, #0xe90
   826d8:	52800081 	mov	w1, #0x4                   	// #4
   826dc:	b9000001 	str	w1, [x0]
   826e0:	d0000000 	adrp	x0, 84000 <fonts_init+0x2930>
   826e4:	913a4000 	add	x0, x0, #0xe90
   826e8:	b900041f 	str	wzr, [x0, #4]
   826ec:	d0000000 	adrp	x0, 84000 <fonts_init+0x2930>
   826f0:	913a4000 	add	x0, x0, #0xe90
   826f4:	b900081f 	str	wzr, [x0, #8]
   826f8:	d0000000 	adrp	x0, 84000 <fonts_init+0x2930>
   826fc:	913a4000 	add	x0, x0, #0xe90
   82700:	52800081 	mov	w1, #0x4                   	// #4
   82704:	b9000c01 	str	w1, [x0, #12]
   82708:	d0000000 	adrp	x0, 84000 <fonts_init+0x2930>
   8270c:	913a4000 	add	x0, x0, #0xe90
   82710:	b900101f 	str	wzr, [x0, #16]
   82714:	d0000000 	adrp	x0, 84000 <fonts_init+0x2930>
   82718:	913a4000 	add	x0, x0, #0xe90
   8271c:	b900141f 	str	wzr, [x0, #20]
   82720:	d0000000 	adrp	x0, 84000 <fonts_init+0x2930>
   82724:	913a4000 	add	x0, x0, #0xe90
   82728:	128000a1 	mov	w1, #0xfffffffa            	// #-6
   8272c:	b9001801 	str	w1, [x0, #24]
   82730:	d0000000 	adrp	x0, 84000 <fonts_init+0x2930>
   82734:	913a4000 	add	x0, x0, #0xe90
   82738:	b9001c1f 	str	wzr, [x0, #28]
   8273c:	d0000000 	adrp	x0, 84000 <fonts_init+0x2930>
   82740:	913a4000 	add	x0, x0, #0xe90
   82744:	b900201f 	str	wzr, [x0, #32]
   82748:	d0000000 	adrp	x0, 84000 <fonts_init+0x2930>
   8274c:	913a4000 	add	x0, x0, #0xe90
   82750:	b900241f 	str	wzr, [x0, #36]
   82754:	d0000000 	adrp	x0, 84000 <fonts_init+0x2930>
   82758:	913a4000 	add	x0, x0, #0xe90
   8275c:	128000a1 	mov	w1, #0xfffffffa            	// #-6
   82760:	b9002801 	str	w1, [x0, #40]
   82764:	d0000000 	adrp	x0, 84000 <fonts_init+0x2930>
   82768:	913a4000 	add	x0, x0, #0xe90
   8276c:	52800081 	mov	w1, #0x4                   	// #4
   82770:	b9002c01 	str	w1, [x0, #44]
   82774:	d0000000 	adrp	x0, 84000 <fonts_init+0x2930>
   82778:	913a4000 	add	x0, x0, #0xe90
   8277c:	128000a1 	mov	w1, #0xfffffffa            	// #-6
   82780:	b9003001 	str	w1, [x0, #48]
   82784:	d0000000 	adrp	x0, 84000 <fonts_init+0x2930>
   82788:	913a4000 	add	x0, x0, #0xe90
   8278c:	52800081 	mov	w1, #0x4                   	// #4
   82790:	b9003401 	str	w1, [x0, #52]
   82794:	d0000000 	adrp	x0, 84000 <fonts_init+0x2930>
   82798:	913a4000 	add	x0, x0, #0xe90
   8279c:	128000a1 	mov	w1, #0xfffffffa            	// #-6
   827a0:	b9003801 	str	w1, [x0, #56]
   827a4:	d0000000 	adrp	x0, 84000 <fonts_init+0x2930>
   827a8:	913a4000 	add	x0, x0, #0xe90
   827ac:	52800081 	mov	w1, #0x4                   	// #4
   827b0:	b9003c01 	str	w1, [x0, #60]
   827b4:	d0000000 	adrp	x0, 84000 <fonts_init+0x2930>
   827b8:	913a4000 	add	x0, x0, #0xe90
   827bc:	b900401f 	str	wzr, [x0, #64]
   827c0:	d0000000 	adrp	x0, 84000 <fonts_init+0x2930>
   827c4:	913be000 	add	x0, x0, #0xef8
   827c8:	91400800 	add	x0, x0, #0x2, lsl #12
   827cc:	d1049002 	sub	x2, x0, #0x124
   827d0:	d0000000 	adrp	x0, 84000 <fonts_init+0x2930>
   827d4:	913a4001 	add	x1, x0, #0xe90
   827d8:	aa0203e0 	mov	x0, x2
   827dc:	a9400c22 	ldp	x2, x3, [x1]
   827e0:	a9000c02 	stp	x2, x3, [x0]
   827e4:	a9410c22 	ldp	x2, x3, [x1, #16]
   827e8:	a9010c02 	stp	x2, x3, [x0, #16]
   827ec:	a9420c22 	ldp	x2, x3, [x1, #32]
   827f0:	a9020c02 	stp	x2, x3, [x0, #32]
   827f4:	a9430c22 	ldp	x2, x3, [x1, #48]
   827f8:	a9030c02 	stp	x2, x3, [x0, #48]
   827fc:	a9440c22 	ldp	x2, x3, [x1, #64]
   82800:	a9040c02 	stp	x2, x3, [x0, #64]
   82804:	a9450c22 	ldp	x2, x3, [x1, #80]
   82808:	a9050c02 	stp	x2, x3, [x0, #80]
   8280c:	b9406021 	ldr	w1, [x1, #96]
   82810:	b9006001 	str	w1, [x0, #96]
   82814:	d0000000 	adrp	x0, 84000 <fonts_init+0x2930>
   82818:	913a4000 	add	x0, x0, #0xe90
   8281c:	52800061 	mov	w1, #0x3                   	// #3
   82820:	b9000001 	str	w1, [x0]
   82824:	d0000000 	adrp	x0, 84000 <fonts_init+0x2930>
   82828:	913a4000 	add	x0, x0, #0xe90
   8282c:	b900041f 	str	wzr, [x0, #4]
   82830:	d0000000 	adrp	x0, 84000 <fonts_init+0x2930>
   82834:	913a4000 	add	x0, x0, #0xe90
   82838:	128000a1 	mov	w1, #0xfffffffa            	// #-6
   8283c:	b9000801 	str	w1, [x0, #8]
   82840:	d0000000 	adrp	x0, 84000 <fonts_init+0x2930>
   82844:	913a4000 	add	x0, x0, #0xe90
   82848:	b9000c1f 	str	wzr, [x0, #12]
   8284c:	d0000000 	adrp	x0, 84000 <fonts_init+0x2930>
   82850:	913a4000 	add	x0, x0, #0xe90
   82854:	b900101f 	str	wzr, [x0, #16]
   82858:	d0000000 	adrp	x0, 84000 <fonts_init+0x2930>
   8285c:	913a4000 	add	x0, x0, #0xe90
   82860:	b900141f 	str	wzr, [x0, #20]
   82864:	d0000000 	adrp	x0, 84000 <fonts_init+0x2930>
   82868:	913a4000 	add	x0, x0, #0xe90
   8286c:	128000a1 	mov	w1, #0xfffffffa            	// #-6
   82870:	b9001801 	str	w1, [x0, #24]
   82874:	d0000000 	adrp	x0, 84000 <fonts_init+0x2930>
   82878:	913a4000 	add	x0, x0, #0xe90
   8287c:	52800081 	mov	w1, #0x4                   	// #4
   82880:	b9001c01 	str	w1, [x0, #28]
   82884:	d0000000 	adrp	x0, 84000 <fonts_init+0x2930>
   82888:	913a4000 	add	x0, x0, #0xe90
   8288c:	12800061 	mov	w1, #0xfffffffc            	// #-4
   82890:	b9002001 	str	w1, [x0, #32]
   82894:	d0000000 	adrp	x0, 84000 <fonts_init+0x2930>
   82898:	913a4000 	add	x0, x0, #0xe90
   8289c:	52800081 	mov	w1, #0x4                   	// #4
   828a0:	b9002401 	str	w1, [x0, #36]
   828a4:	d0000000 	adrp	x0, 84000 <fonts_init+0x2930>
   828a8:	913a4000 	add	x0, x0, #0xe90
   828ac:	12800061 	mov	w1, #0xfffffffc            	// #-4
   828b0:	b9002801 	str	w1, [x0, #40]
   828b4:	d0000000 	adrp	x0, 84000 <fonts_init+0x2930>
   828b8:	913a4000 	add	x0, x0, #0xe90
   828bc:	b9002c1f 	str	wzr, [x0, #44]
   828c0:	d0000000 	adrp	x0, 84000 <fonts_init+0x2930>
   828c4:	913a4000 	add	x0, x0, #0xe90
   828c8:	12800021 	mov	w1, #0xfffffffe            	// #-2
   828cc:	b9003001 	str	w1, [x0, #48]
   828d0:	d0000000 	adrp	x0, 84000 <fonts_init+0x2930>
   828d4:	913be000 	add	x0, x0, #0xef8
   828d8:	91400800 	add	x0, x0, #0x2, lsl #12
   828dc:	d1030002 	sub	x2, x0, #0xc0
   828e0:	d0000000 	adrp	x0, 84000 <fonts_init+0x2930>
   828e4:	913a4001 	add	x1, x0, #0xe90
   828e8:	aa0203e0 	mov	x0, x2
   828ec:	a9400c22 	ldp	x2, x3, [x1]
   828f0:	a9000c02 	stp	x2, x3, [x0]
   828f4:	a9410c22 	ldp	x2, x3, [x1, #16]
   828f8:	a9010c02 	stp	x2, x3, [x0, #16]
   828fc:	a9420c22 	ldp	x2, x3, [x1, #32]
   82900:	a9020c02 	stp	x2, x3, [x0, #32]
   82904:	a9430c22 	ldp	x2, x3, [x1, #48]
   82908:	a9030c02 	stp	x2, x3, [x0, #48]
   8290c:	a9440c22 	ldp	x2, x3, [x1, #64]
   82910:	a9040c02 	stp	x2, x3, [x0, #64]
   82914:	a9450c22 	ldp	x2, x3, [x1, #80]
   82918:	a9050c02 	stp	x2, x3, [x0, #80]
   8291c:	b9406021 	ldr	w1, [x1, #96]
   82920:	b9006001 	str	w1, [x0, #96]
   82924:	d0000000 	adrp	x0, 84000 <fonts_init+0x2930>
   82928:	913a4000 	add	x0, x0, #0xe90
   8292c:	52800081 	mov	w1, #0x4                   	// #4
   82930:	b9000001 	str	w1, [x0]
   82934:	d0000000 	adrp	x0, 84000 <fonts_init+0x2930>
   82938:	913a4000 	add	x0, x0, #0xe90
   8293c:	b900041f 	str	wzr, [x0, #4]
   82940:	d0000000 	adrp	x0, 84000 <fonts_init+0x2930>
   82944:	913a4000 	add	x0, x0, #0xe90
   82948:	128000a1 	mov	w1, #0xfffffffa            	// #-6
   8294c:	b9000801 	str	w1, [x0, #8]
   82950:	d0000000 	adrp	x0, 84000 <fonts_init+0x2930>
   82954:	913a4000 	add	x0, x0, #0xe90
   82958:	b9000c1f 	str	wzr, [x0, #12]
   8295c:	d0000000 	adrp	x0, 84000 <fonts_init+0x2930>
   82960:	913a4000 	add	x0, x0, #0xe90
   82964:	b900101f 	str	wzr, [x0, #16]
   82968:	d0000000 	adrp	x0, 84000 <fonts_init+0x2930>
   8296c:	913a4000 	add	x0, x0, #0xe90
   82970:	b900141f 	str	wzr, [x0, #20]
   82974:	d0000000 	adrp	x0, 84000 <fonts_init+0x2930>
   82978:	913a4000 	add	x0, x0, #0xe90
   8297c:	128000a1 	mov	w1, #0xfffffffa            	// #-6
   82980:	b9001801 	str	w1, [x0, #24]
   82984:	d0000000 	adrp	x0, 84000 <fonts_init+0x2930>
   82988:	913a4000 	add	x0, x0, #0xe90
   8298c:	52800081 	mov	w1, #0x4                   	// #4
   82990:	b9001c01 	str	w1, [x0, #28]
   82994:	d0000000 	adrp	x0, 84000 <fonts_init+0x2930>
   82998:	913a4000 	add	x0, x0, #0xe90
   8299c:	12800061 	mov	w1, #0xfffffffc            	// #-4
   829a0:	b9002001 	str	w1, [x0, #32]
   829a4:	d0000000 	adrp	x0, 84000 <fonts_init+0x2930>
   829a8:	913a4000 	add	x0, x0, #0xe90
   829ac:	52800081 	mov	w1, #0x4                   	// #4
   829b0:	b9002401 	str	w1, [x0, #36]
   829b4:	d0000000 	adrp	x0, 84000 <fonts_init+0x2930>
   829b8:	913a4000 	add	x0, x0, #0xe90
   829bc:	12800061 	mov	w1, #0xfffffffc            	// #-4
   829c0:	b9002801 	str	w1, [x0, #40]
   829c4:	d0000000 	adrp	x0, 84000 <fonts_init+0x2930>
   829c8:	913a4000 	add	x0, x0, #0xe90
   829cc:	b9002c1f 	str	wzr, [x0, #44]
   829d0:	d0000000 	adrp	x0, 84000 <fonts_init+0x2930>
   829d4:	913a4000 	add	x0, x0, #0xe90
   829d8:	12800021 	mov	w1, #0xfffffffe            	// #-2
   829dc:	b9003001 	str	w1, [x0, #48]
   829e0:	d0000000 	adrp	x0, 84000 <fonts_init+0x2930>
   829e4:	913a4000 	add	x0, x0, #0xe90
   829e8:	b900341f 	str	wzr, [x0, #52]
   829ec:	d0000000 	adrp	x0, 84000 <fonts_init+0x2930>
   829f0:	913a4000 	add	x0, x0, #0xe90
   829f4:	12800021 	mov	w1, #0xfffffffe            	// #-2
   829f8:	b9003801 	str	w1, [x0, #56]
   829fc:	d0000000 	adrp	x0, 84000 <fonts_init+0x2930>
   82a00:	913a4000 	add	x0, x0, #0xe90
   82a04:	52800081 	mov	w1, #0x4                   	// #4
   82a08:	b9003c01 	str	w1, [x0, #60]
   82a0c:	d0000000 	adrp	x0, 84000 <fonts_init+0x2930>
   82a10:	913a4000 	add	x0, x0, #0xe90
   82a14:	b900401f 	str	wzr, [x0, #64]
   82a18:	d0000000 	adrp	x0, 84000 <fonts_init+0x2930>
   82a1c:	913be000 	add	x0, x0, #0xef8
   82a20:	91400800 	add	x0, x0, #0x2, lsl #12
   82a24:	91002002 	add	x2, x0, #0x8
   82a28:	d0000000 	adrp	x0, 84000 <fonts_init+0x2930>
   82a2c:	913a4001 	add	x1, x0, #0xe90
   82a30:	aa0203e0 	mov	x0, x2
   82a34:	a9400c22 	ldp	x2, x3, [x1]
   82a38:	a9000c02 	stp	x2, x3, [x0]
   82a3c:	a9410c22 	ldp	x2, x3, [x1, #16]
   82a40:	a9010c02 	stp	x2, x3, [x0, #16]
   82a44:	a9420c22 	ldp	x2, x3, [x1, #32]
   82a48:	a9020c02 	stp	x2, x3, [x0, #32]
   82a4c:	a9430c22 	ldp	x2, x3, [x1, #48]
   82a50:	a9030c02 	stp	x2, x3, [x0, #48]
   82a54:	a9440c22 	ldp	x2, x3, [x1, #64]
   82a58:	a9040c02 	stp	x2, x3, [x0, #64]
   82a5c:	a9450c22 	ldp	x2, x3, [x1, #80]
   82a60:	a9050c02 	stp	x2, x3, [x0, #80]
   82a64:	b9406021 	ldr	w1, [x1, #96]
   82a68:	b9006001 	str	w1, [x0, #96]
   82a6c:	d0000000 	adrp	x0, 84000 <fonts_init+0x2930>
   82a70:	913a4000 	add	x0, x0, #0xe90
   82a74:	528000a1 	mov	w1, #0x5                   	// #5
   82a78:	b9000001 	str	w1, [x0]
   82a7c:	d0000000 	adrp	x0, 84000 <fonts_init+0x2930>
   82a80:	913a4000 	add	x0, x0, #0xe90
   82a84:	b900041f 	str	wzr, [x0, #4]
   82a88:	d0000000 	adrp	x0, 84000 <fonts_init+0x2930>
   82a8c:	913a4000 	add	x0, x0, #0xe90
   82a90:	b900081f 	str	wzr, [x0, #8]
   82a94:	d0000000 	adrp	x0, 84000 <fonts_init+0x2930>
   82a98:	913a4000 	add	x0, x0, #0xe90
   82a9c:	52800081 	mov	w1, #0x4                   	// #4
   82aa0:	b9000c01 	str	w1, [x0, #12]
   82aa4:	d0000000 	adrp	x0, 84000 <fonts_init+0x2930>
   82aa8:	913a4000 	add	x0, x0, #0xe90
   82aac:	b900101f 	str	wzr, [x0, #16]
   82ab0:	d0000000 	adrp	x0, 84000 <fonts_init+0x2930>
   82ab4:	913a4000 	add	x0, x0, #0xe90
   82ab8:	b900141f 	str	wzr, [x0, #20]
   82abc:	d0000000 	adrp	x0, 84000 <fonts_init+0x2930>
   82ac0:	913a4000 	add	x0, x0, #0xe90
   82ac4:	128000a1 	mov	w1, #0xfffffffa            	// #-6
   82ac8:	b9001801 	str	w1, [x0, #24]
   82acc:	d0000000 	adrp	x0, 84000 <fonts_init+0x2930>
   82ad0:	913a4000 	add	x0, x0, #0xe90
   82ad4:	52800081 	mov	w1, #0x4                   	// #4
   82ad8:	b9001c01 	str	w1, [x0, #28]
   82adc:	d0000000 	adrp	x0, 84000 <fonts_init+0x2930>
   82ae0:	913a4000 	add	x0, x0, #0xe90
   82ae4:	128000a1 	mov	w1, #0xfffffffa            	// #-6
   82ae8:	b9002001 	str	w1, [x0, #32]
   82aec:	d0000000 	adrp	x0, 84000 <fonts_init+0x2930>
   82af0:	913a4000 	add	x0, x0, #0xe90
   82af4:	b900241f 	str	wzr, [x0, #36]
   82af8:	d0000000 	adrp	x0, 84000 <fonts_init+0x2930>
   82afc:	913a4000 	add	x0, x0, #0xe90
   82b00:	12800041 	mov	w1, #0xfffffffd            	// #-3
   82b04:	b9002801 	str	w1, [x0, #40]
   82b08:	d0000000 	adrp	x0, 84000 <fonts_init+0x2930>
   82b0c:	913a4000 	add	x0, x0, #0xe90
   82b10:	52800081 	mov	w1, #0x4                   	// #4
   82b14:	b9002c01 	str	w1, [x0, #44]
   82b18:	d0000000 	adrp	x0, 84000 <fonts_init+0x2930>
   82b1c:	913a4000 	add	x0, x0, #0xe90
   82b20:	12800041 	mov	w1, #0xfffffffd            	// #-3
   82b24:	b9003001 	str	w1, [x0, #48]
   82b28:	d0000000 	adrp	x0, 84000 <fonts_init+0x2930>
   82b2c:	913a4000 	add	x0, x0, #0xe90
   82b30:	b900341f 	str	wzr, [x0, #52]
   82b34:	d0000000 	adrp	x0, 84000 <fonts_init+0x2930>
   82b38:	913a4000 	add	x0, x0, #0xe90
   82b3c:	128000a1 	mov	w1, #0xfffffffa            	// #-6
   82b40:	b9003801 	str	w1, [x0, #56]
   82b44:	d0000000 	adrp	x0, 84000 <fonts_init+0x2930>
   82b48:	913a4000 	add	x0, x0, #0xe90
   82b4c:	b9003c1f 	str	wzr, [x0, #60]
   82b50:	d0000000 	adrp	x0, 84000 <fonts_init+0x2930>
   82b54:	913a4000 	add	x0, x0, #0xe90
   82b58:	12800041 	mov	w1, #0xfffffffd            	// #-3
   82b5c:	b9004001 	str	w1, [x0, #64]
   82b60:	d0000000 	adrp	x0, 84000 <fonts_init+0x2930>
   82b64:	913a4000 	add	x0, x0, #0xe90
   82b68:	52800081 	mov	w1, #0x4                   	// #4
   82b6c:	b9004401 	str	w1, [x0, #68]
   82b70:	d0000000 	adrp	x0, 84000 <fonts_init+0x2930>
   82b74:	913a4000 	add	x0, x0, #0xe90
   82b78:	b900481f 	str	wzr, [x0, #72]
   82b7c:	d0000000 	adrp	x0, 84000 <fonts_init+0x2930>
   82b80:	913a4000 	add	x0, x0, #0xe90
   82b84:	52800081 	mov	w1, #0x4                   	// #4
   82b88:	b9004c01 	str	w1, [x0, #76]
   82b8c:	d0000000 	adrp	x0, 84000 <fonts_init+0x2930>
   82b90:	913a4000 	add	x0, x0, #0xe90
   82b94:	12800041 	mov	w1, #0xfffffffd            	// #-3
   82b98:	b9005001 	str	w1, [x0, #80]
   82b9c:	d0000000 	adrp	x0, 84000 <fonts_init+0x2930>
   82ba0:	913be000 	add	x0, x0, #0xef8
   82ba4:	91400800 	add	x0, x0, #0x2, lsl #12
   82ba8:	9101b002 	add	x2, x0, #0x6c
   82bac:	d0000000 	adrp	x0, 84000 <fonts_init+0x2930>
   82bb0:	913a4001 	add	x1, x0, #0xe90
   82bb4:	aa0203e0 	mov	x0, x2
   82bb8:	a9400c22 	ldp	x2, x3, [x1]
   82bbc:	a9000c02 	stp	x2, x3, [x0]
   82bc0:	a9410c22 	ldp	x2, x3, [x1, #16]
   82bc4:	a9010c02 	stp	x2, x3, [x0, #16]
   82bc8:	a9420c22 	ldp	x2, x3, [x1, #32]
   82bcc:	a9020c02 	stp	x2, x3, [x0, #32]
   82bd0:	a9430c22 	ldp	x2, x3, [x1, #48]
   82bd4:	a9030c02 	stp	x2, x3, [x0, #48]
   82bd8:	a9440c22 	ldp	x2, x3, [x1, #64]
   82bdc:	a9040c02 	stp	x2, x3, [x0, #64]
   82be0:	a9450c22 	ldp	x2, x3, [x1, #80]
   82be4:	a9050c02 	stp	x2, x3, [x0, #80]
   82be8:	b9406021 	ldr	w1, [x1, #96]
   82bec:	b9006001 	str	w1, [x0, #96]
   82bf0:	d0000000 	adrp	x0, 84000 <fonts_init+0x2930>
   82bf4:	913a4000 	add	x0, x0, #0xe90
   82bf8:	52800041 	mov	w1, #0x2                   	// #2
   82bfc:	b9000001 	str	w1, [x0]
   82c00:	d0000000 	adrp	x0, 84000 <fonts_init+0x2930>
   82c04:	913a4000 	add	x0, x0, #0xe90
   82c08:	b900041f 	str	wzr, [x0, #4]
   82c0c:	d0000000 	adrp	x0, 84000 <fonts_init+0x2930>
   82c10:	913a4000 	add	x0, x0, #0xe90
   82c14:	128000a1 	mov	w1, #0xfffffffa            	// #-6
   82c18:	b9000801 	str	w1, [x0, #8]
   82c1c:	d0000000 	adrp	x0, 84000 <fonts_init+0x2930>
   82c20:	913a4000 	add	x0, x0, #0xe90
   82c24:	52800081 	mov	w1, #0x4                   	// #4
   82c28:	b9000c01 	str	w1, [x0, #12]
   82c2c:	d0000000 	adrp	x0, 84000 <fonts_init+0x2930>
   82c30:	913a4000 	add	x0, x0, #0xe90
   82c34:	128000a1 	mov	w1, #0xfffffffa            	// #-6
   82c38:	b9001001 	str	w1, [x0, #16]
   82c3c:	d0000000 	adrp	x0, 84000 <fonts_init+0x2930>
   82c40:	913a4000 	add	x0, x0, #0xe90
   82c44:	52800041 	mov	w1, #0x2                   	// #2
   82c48:	b9001401 	str	w1, [x0, #20]
   82c4c:	d0000000 	adrp	x0, 84000 <fonts_init+0x2930>
   82c50:	913a4000 	add	x0, x0, #0xe90
   82c54:	128000a1 	mov	w1, #0xfffffffa            	// #-6
   82c58:	b9001801 	str	w1, [x0, #24]
   82c5c:	d0000000 	adrp	x0, 84000 <fonts_init+0x2930>
   82c60:	913a4000 	add	x0, x0, #0xe90
   82c64:	52800041 	mov	w1, #0x2                   	// #2
   82c68:	b9001c01 	str	w1, [x0, #28]
   82c6c:	d0000000 	adrp	x0, 84000 <fonts_init+0x2930>
   82c70:	913a4000 	add	x0, x0, #0xe90
   82c74:	b900201f 	str	wzr, [x0, #32]
   82c78:	d0000000 	adrp	x0, 84000 <fonts_init+0x2930>
   82c7c:	913be000 	add	x0, x0, #0xef8
   82c80:	91400800 	add	x0, x0, #0x2, lsl #12
   82c84:	91034002 	add	x2, x0, #0xd0
   82c88:	d0000000 	adrp	x0, 84000 <fonts_init+0x2930>
   82c8c:	913a4001 	add	x1, x0, #0xe90
   82c90:	aa0203e0 	mov	x0, x2
   82c94:	a9400c22 	ldp	x2, x3, [x1]
   82c98:	a9000c02 	stp	x2, x3, [x0]
   82c9c:	a9410c22 	ldp	x2, x3, [x1, #16]
   82ca0:	a9010c02 	stp	x2, x3, [x0, #16]
   82ca4:	a9420c22 	ldp	x2, x3, [x1, #32]
   82ca8:	a9020c02 	stp	x2, x3, [x0, #32]
   82cac:	a9430c22 	ldp	x2, x3, [x1, #48]
   82cb0:	a9030c02 	stp	x2, x3, [x0, #48]
   82cb4:	a9440c22 	ldp	x2, x3, [x1, #64]
   82cb8:	a9040c02 	stp	x2, x3, [x0, #64]
   82cbc:	a9450c22 	ldp	x2, x3, [x1, #80]
   82cc0:	a9050c02 	stp	x2, x3, [x0, #80]
   82cc4:	b9406021 	ldr	w1, [x1, #96]
   82cc8:	b9006001 	str	w1, [x0, #96]
   82ccc:	d0000000 	adrp	x0, 84000 <fonts_init+0x2930>
   82cd0:	913a4000 	add	x0, x0, #0xe90
   82cd4:	52800061 	mov	w1, #0x3                   	// #3
   82cd8:	b9000001 	str	w1, [x0]
   82cdc:	d0000000 	adrp	x0, 84000 <fonts_init+0x2930>
   82ce0:	913a4000 	add	x0, x0, #0xe90
   82ce4:	b900041f 	str	wzr, [x0, #4]
   82ce8:	d0000000 	adrp	x0, 84000 <fonts_init+0x2930>
   82cec:	913a4000 	add	x0, x0, #0xe90
   82cf0:	b900081f 	str	wzr, [x0, #8]
   82cf4:	d0000000 	adrp	x0, 84000 <fonts_init+0x2930>
   82cf8:	913a4000 	add	x0, x0, #0xe90
   82cfc:	b9000c1f 	str	wzr, [x0, #12]
   82d00:	d0000000 	adrp	x0, 84000 <fonts_init+0x2930>
   82d04:	913a4000 	add	x0, x0, #0xe90
   82d08:	128000a1 	mov	w1, #0xfffffffa            	// #-6
   82d0c:	b9001001 	str	w1, [x0, #16]
   82d10:	d0000000 	adrp	x0, 84000 <fonts_init+0x2930>
   82d14:	913a4000 	add	x0, x0, #0xe90
   82d18:	52800081 	mov	w1, #0x4                   	// #4
   82d1c:	b9001401 	str	w1, [x0, #20]
   82d20:	d0000000 	adrp	x0, 84000 <fonts_init+0x2930>
   82d24:	913a4000 	add	x0, x0, #0xe90
   82d28:	b900181f 	str	wzr, [x0, #24]
   82d2c:	d0000000 	adrp	x0, 84000 <fonts_init+0x2930>
   82d30:	913a4000 	add	x0, x0, #0xe90
   82d34:	52800081 	mov	w1, #0x4                   	// #4
   82d38:	b9001c01 	str	w1, [x0, #28]
   82d3c:	d0000000 	adrp	x0, 84000 <fonts_init+0x2930>
   82d40:	913a4000 	add	x0, x0, #0xe90
   82d44:	128000a1 	mov	w1, #0xfffffffa            	// #-6
   82d48:	b9002001 	str	w1, [x0, #32]
   82d4c:	d0000000 	adrp	x0, 84000 <fonts_init+0x2930>
   82d50:	913a4000 	add	x0, x0, #0xe90
   82d54:	b900241f 	str	wzr, [x0, #36]
   82d58:	d0000000 	adrp	x0, 84000 <fonts_init+0x2930>
   82d5c:	913a4000 	add	x0, x0, #0xe90
   82d60:	b900281f 	str	wzr, [x0, #40]
   82d64:	d0000000 	adrp	x0, 84000 <fonts_init+0x2930>
   82d68:	913a4000 	add	x0, x0, #0xe90
   82d6c:	52800081 	mov	w1, #0x4                   	// #4
   82d70:	b9002c01 	str	w1, [x0, #44]
   82d74:	d0000000 	adrp	x0, 84000 <fonts_init+0x2930>
   82d78:	913a4000 	add	x0, x0, #0xe90
   82d7c:	b900301f 	str	wzr, [x0, #48]
   82d80:	d0000000 	adrp	x0, 84000 <fonts_init+0x2930>
   82d84:	913be000 	add	x0, x0, #0xef8
   82d88:	91400800 	add	x0, x0, #0x2, lsl #12
   82d8c:	9104d002 	add	x2, x0, #0x134
   82d90:	d0000000 	adrp	x0, 84000 <fonts_init+0x2930>
   82d94:	913a4001 	add	x1, x0, #0xe90
   82d98:	aa0203e0 	mov	x0, x2
   82d9c:	a9400c22 	ldp	x2, x3, [x1]
   82da0:	a9000c02 	stp	x2, x3, [x0]
   82da4:	a9410c22 	ldp	x2, x3, [x1, #16]
   82da8:	a9010c02 	stp	x2, x3, [x0, #16]
   82dac:	a9420c22 	ldp	x2, x3, [x1, #32]
   82db0:	a9020c02 	stp	x2, x3, [x0, #32]
   82db4:	a9430c22 	ldp	x2, x3, [x1, #48]
   82db8:	a9030c02 	stp	x2, x3, [x0, #48]
   82dbc:	a9440c22 	ldp	x2, x3, [x1, #64]
   82dc0:	a9040c02 	stp	x2, x3, [x0, #64]
   82dc4:	a9450c22 	ldp	x2, x3, [x1, #80]
   82dc8:	a9050c02 	stp	x2, x3, [x0, #80]
   82dcc:	b9406021 	ldr	w1, [x1, #96]
   82dd0:	b9006001 	str	w1, [x0, #96]
   82dd4:	d0000000 	adrp	x0, 84000 <fonts_init+0x2930>
   82dd8:	913a4000 	add	x0, x0, #0xe90
   82ddc:	52800041 	mov	w1, #0x2                   	// #2
   82de0:	b9000001 	str	w1, [x0]
   82de4:	d0000000 	adrp	x0, 84000 <fonts_init+0x2930>
   82de8:	913a4000 	add	x0, x0, #0xe90
   82dec:	52800041 	mov	w1, #0x2                   	// #2
   82df0:	b9000401 	str	w1, [x0, #4]
   82df4:	d0000000 	adrp	x0, 84000 <fonts_init+0x2930>
   82df8:	913a4000 	add	x0, x0, #0xe90
   82dfc:	b900081f 	str	wzr, [x0, #8]
   82e00:	d0000000 	adrp	x0, 84000 <fonts_init+0x2930>
   82e04:	913a4000 	add	x0, x0, #0xe90
   82e08:	b9000c1f 	str	wzr, [x0, #12]
   82e0c:	d0000000 	adrp	x0, 84000 <fonts_init+0x2930>
   82e10:	913a4000 	add	x0, x0, #0xe90
   82e14:	128000a1 	mov	w1, #0xfffffffa            	// #-6
   82e18:	b9001001 	str	w1, [x0, #16]
   82e1c:	d0000000 	adrp	x0, 84000 <fonts_init+0x2930>
   82e20:	913a4000 	add	x0, x0, #0xe90
   82e24:	52800041 	mov	w1, #0x2                   	// #2
   82e28:	b9001401 	str	w1, [x0, #20]
   82e2c:	d0000000 	adrp	x0, 84000 <fonts_init+0x2930>
   82e30:	913a4000 	add	x0, x0, #0xe90
   82e34:	b900181f 	str	wzr, [x0, #24]
   82e38:	d0000000 	adrp	x0, 84000 <fonts_init+0x2930>
   82e3c:	913a4000 	add	x0, x0, #0xe90
   82e40:	52800081 	mov	w1, #0x4                   	// #4
   82e44:	b9001c01 	str	w1, [x0, #28]
   82e48:	d0000000 	adrp	x0, 84000 <fonts_init+0x2930>
   82e4c:	913a4000 	add	x0, x0, #0xe90
   82e50:	128000a1 	mov	w1, #0xfffffffa            	// #-6
   82e54:	b9002001 	str	w1, [x0, #32]
   82e58:	d0000000 	adrp	x0, 84000 <fonts_init+0x2930>
   82e5c:	913be000 	add	x0, x0, #0xef8
   82e60:	91400800 	add	x0, x0, #0x2, lsl #12
   82e64:	91066002 	add	x2, x0, #0x198
   82e68:	d0000000 	adrp	x0, 84000 <fonts_init+0x2930>
   82e6c:	913a4001 	add	x1, x0, #0xe90
   82e70:	aa0203e0 	mov	x0, x2
   82e74:	a9400c22 	ldp	x2, x3, [x1]
   82e78:	a9000c02 	stp	x2, x3, [x0]
   82e7c:	a9410c22 	ldp	x2, x3, [x1, #16]
   82e80:	a9010c02 	stp	x2, x3, [x0, #16]
   82e84:	a9420c22 	ldp	x2, x3, [x1, #32]
   82e88:	a9020c02 	stp	x2, x3, [x0, #32]
   82e8c:	a9430c22 	ldp	x2, x3, [x1, #48]
   82e90:	a9030c02 	stp	x2, x3, [x0, #48]
   82e94:	a9440c22 	ldp	x2, x3, [x1, #64]
   82e98:	a9040c02 	stp	x2, x3, [x0, #64]
   82e9c:	a9450c22 	ldp	x2, x3, [x1, #80]
   82ea0:	a9050c02 	stp	x2, x3, [x0, #80]
   82ea4:	b9406021 	ldr	w1, [x1, #96]
   82ea8:	b9006001 	str	w1, [x0, #96]
   82eac:	d0000000 	adrp	x0, 84000 <fonts_init+0x2930>
   82eb0:	913a4000 	add	x0, x0, #0xe90
   82eb4:	52800081 	mov	w1, #0x4                   	// #4
   82eb8:	b9000001 	str	w1, [x0]
   82ebc:	d0000000 	adrp	x0, 84000 <fonts_init+0x2930>
   82ec0:	913a4000 	add	x0, x0, #0xe90
   82ec4:	b900041f 	str	wzr, [x0, #4]
   82ec8:	d0000000 	adrp	x0, 84000 <fonts_init+0x2930>
   82ecc:	913a4000 	add	x0, x0, #0xe90
   82ed0:	128000a1 	mov	w1, #0xfffffffa            	// #-6
   82ed4:	b9000801 	str	w1, [x0, #8]
   82ed8:	d0000000 	adrp	x0, 84000 <fonts_init+0x2930>
   82edc:	913a4000 	add	x0, x0, #0xe90
   82ee0:	52800021 	mov	w1, #0x1                   	// #1
   82ee4:	b9000c01 	str	w1, [x0, #12]
   82ee8:	d0000000 	adrp	x0, 84000 <fonts_init+0x2930>
   82eec:	913a4000 	add	x0, x0, #0xe90
   82ef0:	b900101f 	str	wzr, [x0, #16]
   82ef4:	d0000000 	adrp	x0, 84000 <fonts_init+0x2930>
   82ef8:	913a4000 	add	x0, x0, #0xe90
   82efc:	52800021 	mov	w1, #0x1                   	// #1
   82f00:	b9001401 	str	w1, [x0, #20]
   82f04:	d0000000 	adrp	x0, 84000 <fonts_init+0x2930>
   82f08:	913a4000 	add	x0, x0, #0xe90
   82f0c:	b900181f 	str	wzr, [x0, #24]
   82f10:	d0000000 	adrp	x0, 84000 <fonts_init+0x2930>
   82f14:	913a4000 	add	x0, x0, #0xe90
   82f18:	52800041 	mov	w1, #0x2                   	// #2
   82f1c:	b9001c01 	str	w1, [x0, #28]
   82f20:	d0000000 	adrp	x0, 84000 <fonts_init+0x2930>
   82f24:	913a4000 	add	x0, x0, #0xe90
   82f28:	12800041 	mov	w1, #0xfffffffd            	// #-3
   82f2c:	b9002001 	str	w1, [x0, #32]
   82f30:	d0000000 	adrp	x0, 84000 <fonts_init+0x2930>
   82f34:	913a4000 	add	x0, x0, #0xe90
   82f38:	52800041 	mov	w1, #0x2                   	// #2
   82f3c:	b9002401 	str	w1, [x0, #36]
   82f40:	d0000000 	adrp	x0, 84000 <fonts_init+0x2930>
   82f44:	913a4000 	add	x0, x0, #0xe90
   82f48:	12800041 	mov	w1, #0xfffffffd            	// #-3
   82f4c:	b9002801 	str	w1, [x0, #40]
   82f50:	d0000000 	adrp	x0, 84000 <fonts_init+0x2930>
   82f54:	913a4000 	add	x0, x0, #0xe90
   82f58:	52800081 	mov	w1, #0x4                   	// #4
   82f5c:	b9002c01 	str	w1, [x0, #44]
   82f60:	d0000000 	adrp	x0, 84000 <fonts_init+0x2930>
   82f64:	913a4000 	add	x0, x0, #0xe90
   82f68:	b900301f 	str	wzr, [x0, #48]
   82f6c:	d0000000 	adrp	x0, 84000 <fonts_init+0x2930>
   82f70:	913a4000 	add	x0, x0, #0xe90
   82f74:	52800081 	mov	w1, #0x4                   	// #4
   82f78:	b9003401 	str	w1, [x0, #52]
   82f7c:	d0000000 	adrp	x0, 84000 <fonts_init+0x2930>
   82f80:	913a4000 	add	x0, x0, #0xe90
   82f84:	128000a1 	mov	w1, #0xfffffffa            	// #-6
   82f88:	b9003801 	str	w1, [x0, #56]
   82f8c:	d0000000 	adrp	x0, 84000 <fonts_init+0x2930>
   82f90:	913a4000 	add	x0, x0, #0xe90
   82f94:	52800081 	mov	w1, #0x4                   	// #4
   82f98:	b9003c01 	str	w1, [x0, #60]
   82f9c:	d0000000 	adrp	x0, 84000 <fonts_init+0x2930>
   82fa0:	913a4000 	add	x0, x0, #0xe90
   82fa4:	b900401f 	str	wzr, [x0, #64]
   82fa8:	d0000000 	adrp	x0, 84000 <fonts_init+0x2930>
   82fac:	913be000 	add	x0, x0, #0xef8
   82fb0:	91400800 	add	x0, x0, #0x2, lsl #12
   82fb4:	9107f002 	add	x2, x0, #0x1fc
   82fb8:	d0000000 	adrp	x0, 84000 <fonts_init+0x2930>
   82fbc:	913a4001 	add	x1, x0, #0xe90
   82fc0:	aa0203e0 	mov	x0, x2
   82fc4:	a9400c22 	ldp	x2, x3, [x1]
   82fc8:	a9000c02 	stp	x2, x3, [x0]
   82fcc:	a9410c22 	ldp	x2, x3, [x1, #16]
   82fd0:	a9010c02 	stp	x2, x3, [x0, #16]
   82fd4:	a9420c22 	ldp	x2, x3, [x1, #32]
   82fd8:	a9020c02 	stp	x2, x3, [x0, #32]
   82fdc:	a9430c22 	ldp	x2, x3, [x1, #48]
   82fe0:	a9030c02 	stp	x2, x3, [x0, #48]
   82fe4:	a9440c22 	ldp	x2, x3, [x1, #64]
   82fe8:	a9040c02 	stp	x2, x3, [x0, #64]
   82fec:	a9450c22 	ldp	x2, x3, [x1, #80]
   82ff0:	a9050c02 	stp	x2, x3, [x0, #80]
   82ff4:	b9406021 	ldr	w1, [x1, #96]
   82ff8:	b9006001 	str	w1, [x0, #96]
   82ffc:	d0000000 	adrp	x0, 84000 <fonts_init+0x2930>
   83000:	913a4000 	add	x0, x0, #0xe90
   83004:	52800041 	mov	w1, #0x2                   	// #2
   83008:	b9000001 	str	w1, [x0]
   8300c:	b0000000 	adrp	x0, 84000 <fonts_init+0x2930>
   83010:	913a4000 	add	x0, x0, #0xe90
   83014:	b900041f 	str	wzr, [x0, #4]
   83018:	b0000000 	adrp	x0, 84000 <fonts_init+0x2930>
   8301c:	913a4000 	add	x0, x0, #0xe90
   83020:	128000a1 	mov	w1, #0xfffffffa            	// #-6
   83024:	b9000801 	str	w1, [x0, #8]
   83028:	b0000000 	adrp	x0, 84000 <fonts_init+0x2930>
   8302c:	913a4000 	add	x0, x0, #0xe90
   83030:	52800081 	mov	w1, #0x4                   	// #4
   83034:	b9000c01 	str	w1, [x0, #12]
   83038:	b0000000 	adrp	x0, 84000 <fonts_init+0x2930>
   8303c:	913a4000 	add	x0, x0, #0xe90
   83040:	b900101f 	str	wzr, [x0, #16]
   83044:	b0000000 	adrp	x0, 84000 <fonts_init+0x2930>
   83048:	913a4000 	add	x0, x0, #0xe90
   8304c:	b900141f 	str	wzr, [x0, #20]
   83050:	b0000000 	adrp	x0, 84000 <fonts_init+0x2930>
   83054:	913a4000 	add	x0, x0, #0xe90
   83058:	b900181f 	str	wzr, [x0, #24]
   8305c:	b0000000 	adrp	x0, 84000 <fonts_init+0x2930>
   83060:	913a4000 	add	x0, x0, #0xe90
   83064:	52800081 	mov	w1, #0x4                   	// #4
   83068:	b9001c01 	str	w1, [x0, #28]
   8306c:	b0000000 	adrp	x0, 84000 <fonts_init+0x2930>
   83070:	913a4000 	add	x0, x0, #0xe90
   83074:	128000a1 	mov	w1, #0xfffffffa            	// #-6
   83078:	b9002001 	str	w1, [x0, #32]
   8307c:	b0000000 	adrp	x0, 84000 <fonts_init+0x2930>
   83080:	913be001 	add	x1, x0, #0xef8
   83084:	d2848000 	mov	x0, #0x2400                	// #9216
   83088:	8b000020 	add	x0, x1, x0
   8308c:	d1068002 	sub	x2, x0, #0x1a0
   83090:	b0000000 	adrp	x0, 84000 <fonts_init+0x2930>
   83094:	913a4001 	add	x1, x0, #0xe90
   83098:	aa0203e0 	mov	x0, x2
   8309c:	a9400c22 	ldp	x2, x3, [x1]
   830a0:	a9000c02 	stp	x2, x3, [x0]
   830a4:	a9410c22 	ldp	x2, x3, [x1, #16]
   830a8:	a9010c02 	stp	x2, x3, [x0, #16]
   830ac:	a9420c22 	ldp	x2, x3, [x1, #32]
   830b0:	a9020c02 	stp	x2, x3, [x0, #32]
   830b4:	a9430c22 	ldp	x2, x3, [x1, #48]
   830b8:	a9030c02 	stp	x2, x3, [x0, #48]
   830bc:	a9440c22 	ldp	x2, x3, [x1, #64]
   830c0:	a9040c02 	stp	x2, x3, [x0, #64]
   830c4:	a9450c22 	ldp	x2, x3, [x1, #80]
   830c8:	a9050c02 	stp	x2, x3, [x0, #80]
   830cc:	b9406021 	ldr	w1, [x1, #96]
   830d0:	b9006001 	str	w1, [x0, #96]
   830d4:	b0000000 	adrp	x0, 84000 <fonts_init+0x2930>
   830d8:	913a4000 	add	x0, x0, #0xe90
   830dc:	52800061 	mov	w1, #0x3                   	// #3
   830e0:	b9000001 	str	w1, [x0]
   830e4:	b0000000 	adrp	x0, 84000 <fonts_init+0x2930>
   830e8:	913a4000 	add	x0, x0, #0xe90
   830ec:	52800041 	mov	w1, #0x2                   	// #2
   830f0:	b9000401 	str	w1, [x0, #4]
   830f4:	b0000000 	adrp	x0, 84000 <fonts_init+0x2930>
   830f8:	913a4000 	add	x0, x0, #0xe90
   830fc:	b900081f 	str	wzr, [x0, #8]
   83100:	b0000000 	adrp	x0, 84000 <fonts_init+0x2930>
   83104:	913a4000 	add	x0, x0, #0xe90
   83108:	52800041 	mov	w1, #0x2                   	// #2
   8310c:	b9000c01 	str	w1, [x0, #12]
   83110:	b0000000 	adrp	x0, 84000 <fonts_init+0x2930>
   83114:	913a4000 	add	x0, x0, #0xe90
   83118:	12800041 	mov	w1, #0xfffffffd            	// #-3
   8311c:	b9001001 	str	w1, [x0, #16]
   83120:	b0000000 	adrp	x0, 84000 <fonts_init+0x2930>
   83124:	913a4000 	add	x0, x0, #0xe90
   83128:	52800041 	mov	w1, #0x2                   	// #2
   8312c:	b9001401 	str	w1, [x0, #20]
   83130:	b0000000 	adrp	x0, 84000 <fonts_init+0x2930>
   83134:	913a4000 	add	x0, x0, #0xe90
   83138:	12800041 	mov	w1, #0xfffffffd            	// #-3
   8313c:	b9001801 	str	w1, [x0, #24]
   83140:	b0000000 	adrp	x0, 84000 <fonts_init+0x2930>
   83144:	913a4000 	add	x0, x0, #0xe90
   83148:	b9001c1f 	str	wzr, [x0, #28]
   8314c:	b0000000 	adrp	x0, 84000 <fonts_init+0x2930>
   83150:	913a4000 	add	x0, x0, #0xe90
   83154:	128000a1 	mov	w1, #0xfffffffa            	// #-6
   83158:	b9002001 	str	w1, [x0, #32]
   8315c:	b0000000 	adrp	x0, 84000 <fonts_init+0x2930>
   83160:	913a4000 	add	x0, x0, #0xe90
   83164:	52800041 	mov	w1, #0x2                   	// #2
   83168:	b9002401 	str	w1, [x0, #36]
   8316c:	b0000000 	adrp	x0, 84000 <fonts_init+0x2930>
   83170:	913a4000 	add	x0, x0, #0xe90
   83174:	12800041 	mov	w1, #0xfffffffd            	// #-3
   83178:	b9002801 	str	w1, [x0, #40]
   8317c:	b0000000 	adrp	x0, 84000 <fonts_init+0x2930>
   83180:	913a4000 	add	x0, x0, #0xe90
   83184:	52800081 	mov	w1, #0x4                   	// #4
   83188:	b9002c01 	str	w1, [x0, #44]
   8318c:	b0000000 	adrp	x0, 84000 <fonts_init+0x2930>
   83190:	913a4000 	add	x0, x0, #0xe90
   83194:	128000a1 	mov	w1, #0xfffffffa            	// #-6
   83198:	b9003001 	str	w1, [x0, #48]
   8319c:	b0000000 	adrp	x0, 84000 <fonts_init+0x2930>
   831a0:	913be001 	add	x1, x0, #0xef8
   831a4:	d2848000 	mov	x0, #0x2400                	// #9216
   831a8:	8b000020 	add	x0, x1, x0
   831ac:	d104f002 	sub	x2, x0, #0x13c
   831b0:	b0000000 	adrp	x0, 84000 <fonts_init+0x2930>
   831b4:	913a4001 	add	x1, x0, #0xe90
   831b8:	aa0203e0 	mov	x0, x2
   831bc:	a9400c22 	ldp	x2, x3, [x1]
   831c0:	a9000c02 	stp	x2, x3, [x0]
   831c4:	a9410c22 	ldp	x2, x3, [x1, #16]
   831c8:	a9010c02 	stp	x2, x3, [x0, #16]
   831cc:	a9420c22 	ldp	x2, x3, [x1, #32]
   831d0:	a9020c02 	stp	x2, x3, [x0, #32]
   831d4:	a9430c22 	ldp	x2, x3, [x1, #48]
   831d8:	a9030c02 	stp	x2, x3, [x0, #48]
   831dc:	a9440c22 	ldp	x2, x3, [x1, #64]
   831e0:	a9040c02 	stp	x2, x3, [x0, #64]
   831e4:	a9450c22 	ldp	x2, x3, [x1, #80]
   831e8:	a9050c02 	stp	x2, x3, [x0, #80]
   831ec:	b9406021 	ldr	w1, [x1, #96]
   831f0:	b9006001 	str	w1, [x0, #96]
   831f4:	b0000000 	adrp	x0, 84000 <fonts_init+0x2930>
   831f8:	913a4000 	add	x0, x0, #0xe90
   831fc:	52800061 	mov	w1, #0x3                   	// #3
   83200:	b9000001 	str	w1, [x0]
   83204:	b0000000 	adrp	x0, 84000 <fonts_init+0x2930>
   83208:	913a4000 	add	x0, x0, #0xe90
   8320c:	b900041f 	str	wzr, [x0, #4]
   83210:	b0000000 	adrp	x0, 84000 <fonts_init+0x2930>
   83214:	913a4000 	add	x0, x0, #0xe90
   83218:	128000a1 	mov	w1, #0xfffffffa            	// #-6
   8321c:	b9000801 	str	w1, [x0, #8]
   83220:	b0000000 	adrp	x0, 84000 <fonts_init+0x2930>
   83224:	913a4000 	add	x0, x0, #0xe90
   83228:	52800081 	mov	w1, #0x4                   	// #4
   8322c:	b9000c01 	str	w1, [x0, #12]
   83230:	b0000000 	adrp	x0, 84000 <fonts_init+0x2930>
   83234:	913a4000 	add	x0, x0, #0xe90
   83238:	128000a1 	mov	w1, #0xfffffffa            	// #-6
   8323c:	b9001001 	str	w1, [x0, #16]
   83240:	b0000000 	adrp	x0, 84000 <fonts_init+0x2930>
   83244:	913a4000 	add	x0, x0, #0xe90
   83248:	52800081 	mov	w1, #0x4                   	// #4
   8324c:	b9001401 	str	w1, [x0, #20]
   83250:	b0000000 	adrp	x0, 84000 <fonts_init+0x2930>
   83254:	913a4000 	add	x0, x0, #0xe90
   83258:	128000a1 	mov	w1, #0xfffffffa            	// #-6
   8325c:	b9001801 	str	w1, [x0, #24]
   83260:	b0000000 	adrp	x0, 84000 <fonts_init+0x2930>
   83264:	913a4000 	add	x0, x0, #0xe90
   83268:	b9001c1f 	str	wzr, [x0, #28]
   8326c:	b0000000 	adrp	x0, 84000 <fonts_init+0x2930>
   83270:	913a4000 	add	x0, x0, #0xe90
   83274:	b900201f 	str	wzr, [x0, #32]
   83278:	b0000000 	adrp	x0, 84000 <fonts_init+0x2930>
   8327c:	913a4000 	add	x0, x0, #0xe90
   83280:	b900241f 	str	wzr, [x0, #36]
   83284:	b0000000 	adrp	x0, 84000 <fonts_init+0x2930>
   83288:	913a4000 	add	x0, x0, #0xe90
   8328c:	b900281f 	str	wzr, [x0, #40]
   83290:	b0000000 	adrp	x0, 84000 <fonts_init+0x2930>
   83294:	913a4000 	add	x0, x0, #0xe90
   83298:	52800081 	mov	w1, #0x4                   	// #4
   8329c:	b9002c01 	str	w1, [x0, #44]
   832a0:	b0000000 	adrp	x0, 84000 <fonts_init+0x2930>
   832a4:	913a4000 	add	x0, x0, #0xe90
   832a8:	b900301f 	str	wzr, [x0, #48]
   832ac:	b0000000 	adrp	x0, 84000 <fonts_init+0x2930>
   832b0:	913be001 	add	x1, x0, #0xef8
   832b4:	d2848000 	mov	x0, #0x2400                	// #9216
   832b8:	8b000020 	add	x0, x1, x0
   832bc:	d1036002 	sub	x2, x0, #0xd8
   832c0:	b0000000 	adrp	x0, 84000 <fonts_init+0x2930>
   832c4:	913a4001 	add	x1, x0, #0xe90
   832c8:	aa0203e0 	mov	x0, x2
   832cc:	a9400c22 	ldp	x2, x3, [x1]
   832d0:	a9000c02 	stp	x2, x3, [x0]
   832d4:	a9410c22 	ldp	x2, x3, [x1, #16]
   832d8:	a9010c02 	stp	x2, x3, [x0, #16]
   832dc:	a9420c22 	ldp	x2, x3, [x1, #32]
   832e0:	a9020c02 	stp	x2, x3, [x0, #32]
   832e4:	a9430c22 	ldp	x2, x3, [x1, #48]
   832e8:	a9030c02 	stp	x2, x3, [x0, #48]
   832ec:	a9440c22 	ldp	x2, x3, [x1, #64]
   832f0:	a9040c02 	stp	x2, x3, [x0, #64]
   832f4:	a9450c22 	ldp	x2, x3, [x1, #80]
   832f8:	a9050c02 	stp	x2, x3, [x0, #80]
   832fc:	b9406021 	ldr	w1, [x1, #96]
   83300:	b9006001 	str	w1, [x0, #96]
   83304:	b0000000 	adrp	x0, 84000 <fonts_init+0x2930>
   83308:	913a4000 	add	x0, x0, #0xe90
   8330c:	52800021 	mov	w1, #0x1                   	// #1
   83310:	b9000001 	str	w1, [x0]
   83314:	b0000000 	adrp	x0, 84000 <fonts_init+0x2930>
   83318:	913a4000 	add	x0, x0, #0xe90
   8331c:	52800041 	mov	w1, #0x2                   	// #2
   83320:	b9000401 	str	w1, [x0, #4]
   83324:	b0000000 	adrp	x0, 84000 <fonts_init+0x2930>
   83328:	913a4000 	add	x0, x0, #0xe90
   8332c:	b900081f 	str	wzr, [x0, #8]
   83330:	b0000000 	adrp	x0, 84000 <fonts_init+0x2930>
   83334:	913a4000 	add	x0, x0, #0xe90
   83338:	52800041 	mov	w1, #0x2                   	// #2
   8333c:	b9000c01 	str	w1, [x0, #12]
   83340:	b0000000 	adrp	x0, 84000 <fonts_init+0x2930>
   83344:	913a4000 	add	x0, x0, #0xe90
   83348:	128000a1 	mov	w1, #0xfffffffa            	// #-6
   8334c:	b9001001 	str	w1, [x0, #16]
   83350:	b0000000 	adrp	x0, 84000 <fonts_init+0x2930>
   83354:	913be001 	add	x1, x0, #0xef8
   83358:	d2828000 	mov	x0, #0x1400                	// #5120
   8335c:	8b000020 	add	x0, x1, x0
   83360:	d1037002 	sub	x2, x0, #0xdc
   83364:	b0000000 	adrp	x0, 84000 <fonts_init+0x2930>
   83368:	913a4001 	add	x1, x0, #0xe90
   8336c:	aa0203e0 	mov	x0, x2
   83370:	a9400c22 	ldp	x2, x3, [x1]
   83374:	a9000c02 	stp	x2, x3, [x0]
   83378:	a9410c22 	ldp	x2, x3, [x1, #16]
   8337c:	a9010c02 	stp	x2, x3, [x0, #16]
   83380:	a9420c22 	ldp	x2, x3, [x1, #32]
   83384:	a9020c02 	stp	x2, x3, [x0, #32]
   83388:	a9430c22 	ldp	x2, x3, [x1, #48]
   8338c:	a9030c02 	stp	x2, x3, [x0, #48]
   83390:	a9440c22 	ldp	x2, x3, [x1, #64]
   83394:	a9040c02 	stp	x2, x3, [x0, #64]
   83398:	a9450c22 	ldp	x2, x3, [x1, #80]
   8339c:	a9050c02 	stp	x2, x3, [x0, #80]
   833a0:	b9406021 	ldr	w1, [x1, #96]
   833a4:	b9006001 	str	w1, [x0, #96]
   833a8:	b0000000 	adrp	x0, 84000 <fonts_init+0x2930>
   833ac:	913a4000 	add	x0, x0, #0xe90
   833b0:	52800061 	mov	w1, #0x3                   	// #3
   833b4:	b9000001 	str	w1, [x0]
   833b8:	b0000000 	adrp	x0, 84000 <fonts_init+0x2930>
   833bc:	913a4000 	add	x0, x0, #0xe90
   833c0:	b900041f 	str	wzr, [x0, #4]
   833c4:	b0000000 	adrp	x0, 84000 <fonts_init+0x2930>
   833c8:	913a4000 	add	x0, x0, #0xe90
   833cc:	128000a1 	mov	w1, #0xfffffffa            	// #-6
   833d0:	b9000801 	str	w1, [x0, #8]
   833d4:	b0000000 	adrp	x0, 84000 <fonts_init+0x2930>
   833d8:	913a4000 	add	x0, x0, #0xe90
   833dc:	52800081 	mov	w1, #0x4                   	// #4
   833e0:	b9000c01 	str	w1, [x0, #12]
   833e4:	b0000000 	adrp	x0, 84000 <fonts_init+0x2930>
   833e8:	913a4000 	add	x0, x0, #0xe90
   833ec:	12800081 	mov	w1, #0xfffffffb            	// #-5
   833f0:	b9001001 	str	w1, [x0, #16]
   833f4:	b0000000 	adrp	x0, 84000 <fonts_init+0x2930>
   833f8:	913a4000 	add	x0, x0, #0xe90
   833fc:	52800081 	mov	w1, #0x4                   	// #4
   83400:	b9001401 	str	w1, [x0, #20]
   83404:	b0000000 	adrp	x0, 84000 <fonts_init+0x2930>
   83408:	913a4000 	add	x0, x0, #0xe90
   8340c:	12800081 	mov	w1, #0xfffffffb            	// #-5
   83410:	b9001801 	str	w1, [x0, #24]
   83414:	b0000000 	adrp	x0, 84000 <fonts_init+0x2930>
   83418:	913a4000 	add	x0, x0, #0xe90
   8341c:	b9001c1f 	str	wzr, [x0, #28]
   83420:	b0000000 	adrp	x0, 84000 <fonts_init+0x2930>
   83424:	913a4000 	add	x0, x0, #0xe90
   83428:	b900201f 	str	wzr, [x0, #32]
   8342c:	b0000000 	adrp	x0, 84000 <fonts_init+0x2930>
   83430:	913a4000 	add	x0, x0, #0xe90
   83434:	b900241f 	str	wzr, [x0, #36]
   83438:	b0000000 	adrp	x0, 84000 <fonts_init+0x2930>
   8343c:	913a4000 	add	x0, x0, #0xe90
   83440:	b900281f 	str	wzr, [x0, #40]
   83444:	b0000000 	adrp	x0, 84000 <fonts_init+0x2930>
   83448:	913a4000 	add	x0, x0, #0xe90
   8344c:	52800081 	mov	w1, #0x4                   	// #4
   83450:	b9002c01 	str	w1, [x0, #44]
   83454:	b0000000 	adrp	x0, 84000 <fonts_init+0x2930>
   83458:	913a4000 	add	x0, x0, #0xe90
   8345c:	b900301f 	str	wzr, [x0, #48]
   83460:	b0000000 	adrp	x0, 84000 <fonts_init+0x2930>
   83464:	913be001 	add	x1, x0, #0xef8
   83468:	d2828000 	mov	x0, #0x1400                	// #5120
   8346c:	8b000020 	add	x0, x1, x0
   83470:	d101e002 	sub	x2, x0, #0x78
   83474:	b0000000 	adrp	x0, 84000 <fonts_init+0x2930>
   83478:	913a4001 	add	x1, x0, #0xe90
   8347c:	aa0203e0 	mov	x0, x2
   83480:	a9400c22 	ldp	x2, x3, [x1]
   83484:	a9000c02 	stp	x2, x3, [x0]
   83488:	a9410c22 	ldp	x2, x3, [x1, #16]
   8348c:	a9010c02 	stp	x2, x3, [x0, #16]
   83490:	a9420c22 	ldp	x2, x3, [x1, #32]
   83494:	a9020c02 	stp	x2, x3, [x0, #32]
   83498:	a9430c22 	ldp	x2, x3, [x1, #48]
   8349c:	a9030c02 	stp	x2, x3, [x0, #48]
   834a0:	a9440c22 	ldp	x2, x3, [x1, #64]
   834a4:	a9040c02 	stp	x2, x3, [x0, #64]
   834a8:	a9450c22 	ldp	x2, x3, [x1, #80]
   834ac:	a9050c02 	stp	x2, x3, [x0, #80]
   834b0:	b9406021 	ldr	w1, [x1, #96]
   834b4:	b9006001 	str	w1, [x0, #96]
   834b8:	b0000000 	adrp	x0, 84000 <fonts_init+0x2930>
   834bc:	913a4000 	add	x0, x0, #0xe90
   834c0:	52800081 	mov	w1, #0x4                   	// #4
   834c4:	b9000001 	str	w1, [x0]
   834c8:	b0000000 	adrp	x0, 84000 <fonts_init+0x2930>
   834cc:	913a4000 	add	x0, x0, #0xe90
   834d0:	b900041f 	str	wzr, [x0, #4]
   834d4:	b0000000 	adrp	x0, 84000 <fonts_init+0x2930>
   834d8:	913a4000 	add	x0, x0, #0xe90
   834dc:	b900081f 	str	wzr, [x0, #8]
   834e0:	b0000000 	adrp	x0, 84000 <fonts_init+0x2930>
   834e4:	913a4000 	add	x0, x0, #0xe90
   834e8:	52800081 	mov	w1, #0x4                   	// #4
   834ec:	b9000c01 	str	w1, [x0, #12]
   834f0:	b0000000 	adrp	x0, 84000 <fonts_init+0x2930>
   834f4:	913a4000 	add	x0, x0, #0xe90
   834f8:	b900101f 	str	wzr, [x0, #16]
   834fc:	b0000000 	adrp	x0, 84000 <fonts_init+0x2930>
   83500:	913a4000 	add	x0, x0, #0xe90
   83504:	b900141f 	str	wzr, [x0, #20]
   83508:	b0000000 	adrp	x0, 84000 <fonts_init+0x2930>
   8350c:	913a4000 	add	x0, x0, #0xe90
   83510:	128000a1 	mov	w1, #0xfffffffa            	// #-6
   83514:	b9001801 	str	w1, [x0, #24]
   83518:	b0000000 	adrp	x0, 84000 <fonts_init+0x2930>
   8351c:	913a4000 	add	x0, x0, #0xe90
   83520:	52800081 	mov	w1, #0x4                   	// #4
   83524:	b9001c01 	str	w1, [x0, #28]
   83528:	b0000000 	adrp	x0, 84000 <fonts_init+0x2930>
   8352c:	913a4000 	add	x0, x0, #0xe90
   83530:	128000a1 	mov	w1, #0xfffffffa            	// #-6
   83534:	b9002001 	str	w1, [x0, #32]
   83538:	b0000000 	adrp	x0, 84000 <fonts_init+0x2930>
   8353c:	913a4000 	add	x0, x0, #0xe90
   83540:	b900241f 	str	wzr, [x0, #36]
   83544:	b0000000 	adrp	x0, 84000 <fonts_init+0x2930>
   83548:	913a4000 	add	x0, x0, #0xe90
   8354c:	12800041 	mov	w1, #0xfffffffd            	// #-3
   83550:	b9002801 	str	w1, [x0, #40]
   83554:	b0000000 	adrp	x0, 84000 <fonts_init+0x2930>
   83558:	913a4000 	add	x0, x0, #0xe90
   8355c:	52800081 	mov	w1, #0x4                   	// #4
   83560:	b9002c01 	str	w1, [x0, #44]
   83564:	b0000000 	adrp	x0, 84000 <fonts_init+0x2930>
   83568:	913a4000 	add	x0, x0, #0xe90
   8356c:	12800041 	mov	w1, #0xfffffffd            	// #-3
   83570:	b9003001 	str	w1, [x0, #48]
   83574:	b0000000 	adrp	x0, 84000 <fonts_init+0x2930>
   83578:	913a4000 	add	x0, x0, #0xe90
   8357c:	52800081 	mov	w1, #0x4                   	// #4
   83580:	b9003401 	str	w1, [x0, #52]
   83584:	b0000000 	adrp	x0, 84000 <fonts_init+0x2930>
   83588:	913a4000 	add	x0, x0, #0xe90
   8358c:	128000a1 	mov	w1, #0xfffffffa            	// #-6
   83590:	b9003801 	str	w1, [x0, #56]
   83594:	b0000000 	adrp	x0, 84000 <fonts_init+0x2930>
   83598:	913a4000 	add	x0, x0, #0xe90
   8359c:	52800081 	mov	w1, #0x4                   	// #4
   835a0:	b9003c01 	str	w1, [x0, #60]
   835a4:	b0000000 	adrp	x0, 84000 <fonts_init+0x2930>
   835a8:	913a4000 	add	x0, x0, #0xe90
   835ac:	b900401f 	str	wzr, [x0, #64]
   835b0:	b0000000 	adrp	x0, 84000 <fonts_init+0x2930>
   835b4:	913be001 	add	x1, x0, #0xef8
   835b8:	d2828000 	mov	x0, #0x1400                	// #5120
   835bc:	8b000020 	add	x0, x1, x0
   835c0:	d1005002 	sub	x2, x0, #0x14
   835c4:	b0000000 	adrp	x0, 84000 <fonts_init+0x2930>
   835c8:	913a4001 	add	x1, x0, #0xe90
   835cc:	aa0203e0 	mov	x0, x2
   835d0:	a9400c22 	ldp	x2, x3, [x1]
   835d4:	a9000c02 	stp	x2, x3, [x0]
   835d8:	a9410c22 	ldp	x2, x3, [x1, #16]
   835dc:	a9010c02 	stp	x2, x3, [x0, #16]
   835e0:	a9420c22 	ldp	x2, x3, [x1, #32]
   835e4:	a9020c02 	stp	x2, x3, [x0, #32]
   835e8:	a9430c22 	ldp	x2, x3, [x1, #48]
   835ec:	a9030c02 	stp	x2, x3, [x0, #48]
   835f0:	a9440c22 	ldp	x2, x3, [x1, #64]
   835f4:	a9040c02 	stp	x2, x3, [x0, #64]
   835f8:	a9450c22 	ldp	x2, x3, [x1, #80]
   835fc:	a9050c02 	stp	x2, x3, [x0, #80]
   83600:	b9406021 	ldr	w1, [x1, #96]
   83604:	b9006001 	str	w1, [x0, #96]
   83608:	b0000000 	adrp	x0, 84000 <fonts_init+0x2930>
   8360c:	913a4000 	add	x0, x0, #0xe90
   83610:	52800061 	mov	w1, #0x3                   	// #3
   83614:	b9000001 	str	w1, [x0]
   83618:	b0000000 	adrp	x0, 84000 <fonts_init+0x2930>
   8361c:	913a4000 	add	x0, x0, #0xe90
   83620:	52800081 	mov	w1, #0x4                   	// #4
   83624:	b9000401 	str	w1, [x0, #4]
   83628:	b0000000 	adrp	x0, 84000 <fonts_init+0x2930>
   8362c:	913a4000 	add	x0, x0, #0xe90
   83630:	b900081f 	str	wzr, [x0, #8]
   83634:	b0000000 	adrp	x0, 84000 <fonts_init+0x2930>
   83638:	913a4000 	add	x0, x0, #0xe90
   8363c:	52800081 	mov	w1, #0x4                   	// #4
   83640:	b9000c01 	str	w1, [x0, #12]
   83644:	b0000000 	adrp	x0, 84000 <fonts_init+0x2930>
   83648:	913a4000 	add	x0, x0, #0xe90
   8364c:	128000a1 	mov	w1, #0xfffffffa            	// #-6
   83650:	b9001001 	str	w1, [x0, #16]
   83654:	b0000000 	adrp	x0, 84000 <fonts_init+0x2930>
   83658:	913a4000 	add	x0, x0, #0xe90
   8365c:	52800081 	mov	w1, #0x4                   	// #4
   83660:	b9001401 	str	w1, [x0, #20]
   83664:	b0000000 	adrp	x0, 84000 <fonts_init+0x2930>
   83668:	913a4000 	add	x0, x0, #0xe90
   8366c:	128000a1 	mov	w1, #0xfffffffa            	// #-6
   83670:	b9001801 	str	w1, [x0, #24]
   83674:	b0000000 	adrp	x0, 84000 <fonts_init+0x2930>
   83678:	913a4000 	add	x0, x0, #0xe90
   8367c:	b9001c1f 	str	wzr, [x0, #28]
   83680:	b0000000 	adrp	x0, 84000 <fonts_init+0x2930>
   83684:	913a4000 	add	x0, x0, #0xe90
   83688:	12800041 	mov	w1, #0xfffffffd            	// #-3
   8368c:	b9002001 	str	w1, [x0, #32]
   83690:	b0000000 	adrp	x0, 84000 <fonts_init+0x2930>
   83694:	913a4000 	add	x0, x0, #0xe90
   83698:	b900241f 	str	wzr, [x0, #36]
   8369c:	b0000000 	adrp	x0, 84000 <fonts_init+0x2930>
   836a0:	913a4000 	add	x0, x0, #0xe90
   836a4:	12800041 	mov	w1, #0xfffffffd            	// #-3
   836a8:	b9002801 	str	w1, [x0, #40]
   836ac:	b0000000 	adrp	x0, 84000 <fonts_init+0x2930>
   836b0:	913a4000 	add	x0, x0, #0xe90
   836b4:	52800081 	mov	w1, #0x4                   	// #4
   836b8:	b9002c01 	str	w1, [x0, #44]
   836bc:	b0000000 	adrp	x0, 84000 <fonts_init+0x2930>
   836c0:	913a4000 	add	x0, x0, #0xe90
   836c4:	12800041 	mov	w1, #0xfffffffd            	// #-3
   836c8:	b9003001 	str	w1, [x0, #48]
   836cc:	b0000000 	adrp	x0, 84000 <fonts_init+0x2930>
   836d0:	913be001 	add	x1, x0, #0xef8
   836d4:	d2828000 	mov	x0, #0x1400                	// #5120
   836d8:	8b000020 	add	x0, x1, x0
   836dc:	91014002 	add	x2, x0, #0x50
   836e0:	b0000000 	adrp	x0, 84000 <fonts_init+0x2930>
   836e4:	913a4001 	add	x1, x0, #0xe90
   836e8:	aa0203e0 	mov	x0, x2
   836ec:	a9400c22 	ldp	x2, x3, [x1]
   836f0:	a9000c02 	stp	x2, x3, [x0]
   836f4:	a9410c22 	ldp	x2, x3, [x1, #16]
   836f8:	a9010c02 	stp	x2, x3, [x0, #16]
   836fc:	a9420c22 	ldp	x2, x3, [x1, #32]
   83700:	a9020c02 	stp	x2, x3, [x0, #32]
   83704:	a9430c22 	ldp	x2, x3, [x1, #48]
   83708:	a9030c02 	stp	x2, x3, [x0, #48]
   8370c:	a9440c22 	ldp	x2, x3, [x1, #64]
   83710:	a9040c02 	stp	x2, x3, [x0, #64]
   83714:	a9450c22 	ldp	x2, x3, [x1, #80]
   83718:	a9050c02 	stp	x2, x3, [x0, #80]
   8371c:	b9406021 	ldr	w1, [x1, #96]
   83720:	b9006001 	str	w1, [x0, #96]
   83724:	b0000000 	adrp	x0, 84000 <fonts_init+0x2930>
   83728:	913a4000 	add	x0, x0, #0xe90
   8372c:	528000a1 	mov	w1, #0x5                   	// #5
   83730:	b9000001 	str	w1, [x0]
   83734:	b0000000 	adrp	x0, 84000 <fonts_init+0x2930>
   83738:	913a4000 	add	x0, x0, #0xe90
   8373c:	b900041f 	str	wzr, [x0, #4]
   83740:	b0000000 	adrp	x0, 84000 <fonts_init+0x2930>
   83744:	913a4000 	add	x0, x0, #0xe90
   83748:	b900081f 	str	wzr, [x0, #8]
   8374c:	b0000000 	adrp	x0, 84000 <fonts_init+0x2930>
   83750:	913a4000 	add	x0, x0, #0xe90
   83754:	52800081 	mov	w1, #0x4                   	// #4
   83758:	b9000c01 	str	w1, [x0, #12]
   8375c:	b0000000 	adrp	x0, 84000 <fonts_init+0x2930>
   83760:	913a4000 	add	x0, x0, #0xe90
   83764:	b900101f 	str	wzr, [x0, #16]
   83768:	b0000000 	adrp	x0, 84000 <fonts_init+0x2930>
   8376c:	913a4000 	add	x0, x0, #0xe90
   83770:	b900141f 	str	wzr, [x0, #20]
   83774:	b0000000 	adrp	x0, 84000 <fonts_init+0x2930>
   83778:	913a4000 	add	x0, x0, #0xe90
   8377c:	128000a1 	mov	w1, #0xfffffffa            	// #-6
   83780:	b9001801 	str	w1, [x0, #24]
   83784:	b0000000 	adrp	x0, 84000 <fonts_init+0x2930>
   83788:	913a4000 	add	x0, x0, #0xe90
   8378c:	52800081 	mov	w1, #0x4                   	// #4
   83790:	b9001c01 	str	w1, [x0, #28]
   83794:	b0000000 	adrp	x0, 84000 <fonts_init+0x2930>
   83798:	913a4000 	add	x0, x0, #0xe90
   8379c:	128000a1 	mov	w1, #0xfffffffa            	// #-6
   837a0:	b9002001 	str	w1, [x0, #32]
   837a4:	b0000000 	adrp	x0, 84000 <fonts_init+0x2930>
   837a8:	913a4000 	add	x0, x0, #0xe90
   837ac:	b900241f 	str	wzr, [x0, #36]
   837b0:	b0000000 	adrp	x0, 84000 <fonts_init+0x2930>
   837b4:	913a4000 	add	x0, x0, #0xe90
   837b8:	12800041 	mov	w1, #0xfffffffd            	// #-3
   837bc:	b9002801 	str	w1, [x0, #40]
   837c0:	b0000000 	adrp	x0, 84000 <fonts_init+0x2930>
   837c4:	913a4000 	add	x0, x0, #0xe90
   837c8:	52800081 	mov	w1, #0x4                   	// #4
   837cc:	b9002c01 	str	w1, [x0, #44]
   837d0:	b0000000 	adrp	x0, 84000 <fonts_init+0x2930>
   837d4:	913a4000 	add	x0, x0, #0xe90
   837d8:	12800041 	mov	w1, #0xfffffffd            	// #-3
   837dc:	b9003001 	str	w1, [x0, #48]
   837e0:	b0000000 	adrp	x0, 84000 <fonts_init+0x2930>
   837e4:	913a4000 	add	x0, x0, #0xe90
   837e8:	b900341f 	str	wzr, [x0, #52]
   837ec:	b0000000 	adrp	x0, 84000 <fonts_init+0x2930>
   837f0:	913a4000 	add	x0, x0, #0xe90
   837f4:	128000a1 	mov	w1, #0xfffffffa            	// #-6
   837f8:	b9003801 	str	w1, [x0, #56]
   837fc:	b0000000 	adrp	x0, 84000 <fonts_init+0x2930>
   83800:	913a4000 	add	x0, x0, #0xe90
   83804:	b9003c1f 	str	wzr, [x0, #60]
   83808:	b0000000 	adrp	x0, 84000 <fonts_init+0x2930>
   8380c:	913a4000 	add	x0, x0, #0xe90
   83810:	12800041 	mov	w1, #0xfffffffd            	// #-3
   83814:	b9004001 	str	w1, [x0, #64]
   83818:	b0000000 	adrp	x0, 84000 <fonts_init+0x2930>
   8381c:	913a4000 	add	x0, x0, #0xe90
   83820:	52800081 	mov	w1, #0x4                   	// #4
   83824:	b9004401 	str	w1, [x0, #68]
   83828:	b0000000 	adrp	x0, 84000 <fonts_init+0x2930>
   8382c:	913a4000 	add	x0, x0, #0xe90
   83830:	b900481f 	str	wzr, [x0, #72]
   83834:	b0000000 	adrp	x0, 84000 <fonts_init+0x2930>
   83838:	913a4000 	add	x0, x0, #0xe90
   8383c:	52800081 	mov	w1, #0x4                   	// #4
   83840:	b9004c01 	str	w1, [x0, #76]
   83844:	b0000000 	adrp	x0, 84000 <fonts_init+0x2930>
   83848:	913a4000 	add	x0, x0, #0xe90
   8384c:	12800041 	mov	w1, #0xfffffffd            	// #-3
   83850:	b9005001 	str	w1, [x0, #80]
   83854:	b0000000 	adrp	x0, 84000 <fonts_init+0x2930>
   83858:	913be001 	add	x1, x0, #0xef8
   8385c:	d2828000 	mov	x0, #0x1400                	// #5120
   83860:	8b000020 	add	x0, x1, x0
   83864:	9102d002 	add	x2, x0, #0xb4
   83868:	b0000000 	adrp	x0, 84000 <fonts_init+0x2930>
   8386c:	913a4001 	add	x1, x0, #0xe90
   83870:	aa0203e0 	mov	x0, x2
   83874:	a9400c22 	ldp	x2, x3, [x1]
   83878:	a9000c02 	stp	x2, x3, [x0]
   8387c:	a9410c22 	ldp	x2, x3, [x1, #16]
   83880:	a9010c02 	stp	x2, x3, [x0, #16]
   83884:	a9420c22 	ldp	x2, x3, [x1, #32]
   83888:	a9020c02 	stp	x2, x3, [x0, #32]
   8388c:	a9430c22 	ldp	x2, x3, [x1, #48]
   83890:	a9030c02 	stp	x2, x3, [x0, #48]
   83894:	a9440c22 	ldp	x2, x3, [x1, #64]
   83898:	a9040c02 	stp	x2, x3, [x0, #64]
   8389c:	a9450c22 	ldp	x2, x3, [x1, #80]
   838a0:	a9050c02 	stp	x2, x3, [x0, #80]
   838a4:	b9406021 	ldr	w1, [x1, #96]
   838a8:	b9006001 	str	w1, [x0, #96]
   838ac:	b0000000 	adrp	x0, 84000 <fonts_init+0x2930>
   838b0:	913a4000 	add	x0, x0, #0xe90
   838b4:	528000a1 	mov	w1, #0x5                   	// #5
   838b8:	b9000001 	str	w1, [x0]
   838bc:	b0000000 	adrp	x0, 84000 <fonts_init+0x2930>
   838c0:	913a4000 	add	x0, x0, #0xe90
   838c4:	b900041f 	str	wzr, [x0, #4]
   838c8:	b0000000 	adrp	x0, 84000 <fonts_init+0x2930>
   838cc:	913a4000 	add	x0, x0, #0xe90
   838d0:	b900081f 	str	wzr, [x0, #8]
   838d4:	b0000000 	adrp	x0, 84000 <fonts_init+0x2930>
   838d8:	913a4000 	add	x0, x0, #0xe90
   838dc:	52800081 	mov	w1, #0x4                   	// #4
   838e0:	b9000c01 	str	w1, [x0, #12]
   838e4:	b0000000 	adrp	x0, 84000 <fonts_init+0x2930>
   838e8:	913a4000 	add	x0, x0, #0xe90
   838ec:	b900101f 	str	wzr, [x0, #16]
   838f0:	b0000000 	adrp	x0, 84000 <fonts_init+0x2930>
   838f4:	913a4000 	add	x0, x0, #0xe90
   838f8:	b900141f 	str	wzr, [x0, #20]
   838fc:	b0000000 	adrp	x0, 84000 <fonts_init+0x2930>
   83900:	913a4000 	add	x0, x0, #0xe90
   83904:	128000a1 	mov	w1, #0xfffffffa            	// #-6
   83908:	b9001801 	str	w1, [x0, #24]
   8390c:	b0000000 	adrp	x0, 84000 <fonts_init+0x2930>
   83910:	913a4000 	add	x0, x0, #0xe90
   83914:	52800081 	mov	w1, #0x4                   	// #4
   83918:	b9001c01 	str	w1, [x0, #28]
   8391c:	b0000000 	adrp	x0, 84000 <fonts_init+0x2930>
   83920:	913a4000 	add	x0, x0, #0xe90
   83924:	128000a1 	mov	w1, #0xfffffffa            	// #-6
   83928:	b9002001 	str	w1, [x0, #32]
   8392c:	b0000000 	adrp	x0, 84000 <fonts_init+0x2930>
   83930:	913a4000 	add	x0, x0, #0xe90
   83934:	b900241f 	str	wzr, [x0, #36]
   83938:	b0000000 	adrp	x0, 84000 <fonts_init+0x2930>
   8393c:	913a4000 	add	x0, x0, #0xe90
   83940:	12800041 	mov	w1, #0xfffffffd            	// #-3
   83944:	b9002801 	str	w1, [x0, #40]
   83948:	b0000000 	adrp	x0, 84000 <fonts_init+0x2930>
   8394c:	913a4000 	add	x0, x0, #0xe90
   83950:	52800081 	mov	w1, #0x4                   	// #4
   83954:	b9002c01 	str	w1, [x0, #44]
   83958:	b0000000 	adrp	x0, 84000 <fonts_init+0x2930>
   8395c:	913a4000 	add	x0, x0, #0xe90
   83960:	12800041 	mov	w1, #0xfffffffd            	// #-3
   83964:	b9003001 	str	w1, [x0, #48]
   83968:	b0000000 	adrp	x0, 84000 <fonts_init+0x2930>
   8396c:	913a4000 	add	x0, x0, #0xe90
   83970:	b900341f 	str	wzr, [x0, #52]
   83974:	b0000000 	adrp	x0, 84000 <fonts_init+0x2930>
   83978:	913a4000 	add	x0, x0, #0xe90
   8397c:	128000a1 	mov	w1, #0xfffffffa            	// #-6
   83980:	b9003801 	str	w1, [x0, #56]
   83984:	b0000000 	adrp	x0, 84000 <fonts_init+0x2930>
   83988:	913a4000 	add	x0, x0, #0xe90
   8398c:	b9003c1f 	str	wzr, [x0, #60]
   83990:	b0000000 	adrp	x0, 84000 <fonts_init+0x2930>
   83994:	913a4000 	add	x0, x0, #0xe90
   83998:	b900401f 	str	wzr, [x0, #64]
   8399c:	b0000000 	adrp	x0, 84000 <fonts_init+0x2930>
   839a0:	913a4000 	add	x0, x0, #0xe90
   839a4:	52800081 	mov	w1, #0x4                   	// #4
   839a8:	b9004401 	str	w1, [x0, #68]
   839ac:	b0000000 	adrp	x0, 84000 <fonts_init+0x2930>
   839b0:	913a4000 	add	x0, x0, #0xe90
   839b4:	b900481f 	str	wzr, [x0, #72]
   839b8:	b0000000 	adrp	x0, 84000 <fonts_init+0x2930>
   839bc:	913a4000 	add	x0, x0, #0xe90
   839c0:	52800081 	mov	w1, #0x4                   	// #4
   839c4:	b9004c01 	str	w1, [x0, #76]
   839c8:	b0000000 	adrp	x0, 84000 <fonts_init+0x2930>
   839cc:	913a4000 	add	x0, x0, #0xe90
   839d0:	12800041 	mov	w1, #0xfffffffd            	// #-3
   839d4:	b9005001 	str	w1, [x0, #80]
   839d8:	b0000000 	adrp	x0, 84000 <fonts_init+0x2930>
   839dc:	913be001 	add	x1, x0, #0xef8
   839e0:	d2828000 	mov	x0, #0x1400                	// #5120
   839e4:	8b000020 	add	x0, x1, x0
   839e8:	91046002 	add	x2, x0, #0x118
   839ec:	b0000000 	adrp	x0, 84000 <fonts_init+0x2930>
   839f0:	913a4001 	add	x1, x0, #0xe90
   839f4:	aa0203e0 	mov	x0, x2
   839f8:	a9400c22 	ldp	x2, x3, [x1]
   839fc:	a9000c02 	stp	x2, x3, [x0]
   83a00:	a9410c22 	ldp	x2, x3, [x1, #16]
   83a04:	a9010c02 	stp	x2, x3, [x0, #16]
   83a08:	a9420c22 	ldp	x2, x3, [x1, #32]
   83a0c:	a9020c02 	stp	x2, x3, [x0, #32]
   83a10:	a9430c22 	ldp	x2, x3, [x1, #48]
   83a14:	a9030c02 	stp	x2, x3, [x0, #48]
   83a18:	a9440c22 	ldp	x2, x3, [x1, #64]
   83a1c:	a9040c02 	stp	x2, x3, [x0, #64]
   83a20:	a9450c22 	ldp	x2, x3, [x1, #80]
   83a24:	a9050c02 	stp	x2, x3, [x0, #80]
   83a28:	b9406021 	ldr	w1, [x1, #96]
   83a2c:	b9006001 	str	w1, [x0, #96]
   83a30:	b0000000 	adrp	x0, 84000 <fonts_init+0x2930>
   83a34:	913a4000 	add	x0, x0, #0xe90
   83a38:	52800041 	mov	w1, #0x2                   	// #2
   83a3c:	b9000001 	str	w1, [x0]
   83a40:	b0000000 	adrp	x0, 84000 <fonts_init+0x2930>
   83a44:	913a4000 	add	x0, x0, #0xe90
   83a48:	b900041f 	str	wzr, [x0, #4]
   83a4c:	b0000000 	adrp	x0, 84000 <fonts_init+0x2930>
   83a50:	913a4000 	add	x0, x0, #0xe90
   83a54:	128000a1 	mov	w1, #0xfffffffa            	// #-6
   83a58:	b9000801 	str	w1, [x0, #8]
   83a5c:	b0000000 	adrp	x0, 84000 <fonts_init+0x2930>
   83a60:	913a4000 	add	x0, x0, #0xe90
   83a64:	52800081 	mov	w1, #0x4                   	// #4
   83a68:	b9000c01 	str	w1, [x0, #12]
   83a6c:	b0000000 	adrp	x0, 84000 <fonts_init+0x2930>
   83a70:	913a4000 	add	x0, x0, #0xe90
   83a74:	128000a1 	mov	w1, #0xfffffffa            	// #-6
   83a78:	b9001001 	str	w1, [x0, #16]
   83a7c:	b0000000 	adrp	x0, 84000 <fonts_init+0x2930>
   83a80:	913a4000 	add	x0, x0, #0xe90
   83a84:	52800081 	mov	w1, #0x4                   	// #4
   83a88:	b9001401 	str	w1, [x0, #20]
   83a8c:	b0000000 	adrp	x0, 84000 <fonts_init+0x2930>
   83a90:	913a4000 	add	x0, x0, #0xe90
   83a94:	128000a1 	mov	w1, #0xfffffffa            	// #-6
   83a98:	b9001801 	str	w1, [x0, #24]
   83a9c:	b0000000 	adrp	x0, 84000 <fonts_init+0x2930>
   83aa0:	913a4000 	add	x0, x0, #0xe90
   83aa4:	b9001c1f 	str	wzr, [x0, #28]
   83aa8:	b0000000 	adrp	x0, 84000 <fonts_init+0x2930>
   83aac:	913a4000 	add	x0, x0, #0xe90
   83ab0:	b900201f 	str	wzr, [x0, #32]
   83ab4:	b0000000 	adrp	x0, 84000 <fonts_init+0x2930>
   83ab8:	913be001 	add	x1, x0, #0xef8
   83abc:	d2828000 	mov	x0, #0x1400                	// #5120
   83ac0:	8b000020 	add	x0, x1, x0
   83ac4:	9105f002 	add	x2, x0, #0x17c
   83ac8:	b0000000 	adrp	x0, 84000 <fonts_init+0x2930>
   83acc:	913a4001 	add	x1, x0, #0xe90
   83ad0:	aa0203e0 	mov	x0, x2
   83ad4:	a9400c22 	ldp	x2, x3, [x1]
   83ad8:	a9000c02 	stp	x2, x3, [x0]
   83adc:	a9410c22 	ldp	x2, x3, [x1, #16]
   83ae0:	a9010c02 	stp	x2, x3, [x0, #16]
   83ae4:	a9420c22 	ldp	x2, x3, [x1, #32]
   83ae8:	a9020c02 	stp	x2, x3, [x0, #32]
   83aec:	a9430c22 	ldp	x2, x3, [x1, #48]
   83af0:	a9030c02 	stp	x2, x3, [x0, #48]
   83af4:	a9440c22 	ldp	x2, x3, [x1, #64]
   83af8:	a9040c02 	stp	x2, x3, [x0, #64]
   83afc:	a9450c22 	ldp	x2, x3, [x1, #80]
   83b00:	a9050c02 	stp	x2, x3, [x0, #80]
   83b04:	b9406021 	ldr	w1, [x1, #96]
   83b08:	b9006001 	str	w1, [x0, #96]
   83b0c:	b0000000 	adrp	x0, 84000 <fonts_init+0x2930>
   83b10:	913a4000 	add	x0, x0, #0xe90
   83b14:	528000a1 	mov	w1, #0x5                   	// #5
   83b18:	b9000001 	str	w1, [x0]
   83b1c:	b0000000 	adrp	x0, 84000 <fonts_init+0x2930>
   83b20:	913a4000 	add	x0, x0, #0xe90
   83b24:	b900041f 	str	wzr, [x0, #4]
   83b28:	b0000000 	adrp	x0, 84000 <fonts_init+0x2930>
   83b2c:	913a4000 	add	x0, x0, #0xe90
   83b30:	b900081f 	str	wzr, [x0, #8]
   83b34:	b0000000 	adrp	x0, 84000 <fonts_init+0x2930>
   83b38:	913a4000 	add	x0, x0, #0xe90
   83b3c:	52800081 	mov	w1, #0x4                   	// #4
   83b40:	b9000c01 	str	w1, [x0, #12]
   83b44:	b0000000 	adrp	x0, 84000 <fonts_init+0x2930>
   83b48:	913a4000 	add	x0, x0, #0xe90
   83b4c:	b900101f 	str	wzr, [x0, #16]
   83b50:	b0000000 	adrp	x0, 84000 <fonts_init+0x2930>
   83b54:	913a4000 	add	x0, x0, #0xe90
   83b58:	b900141f 	str	wzr, [x0, #20]
   83b5c:	b0000000 	adrp	x0, 84000 <fonts_init+0x2930>
   83b60:	913a4000 	add	x0, x0, #0xe90
   83b64:	128000a1 	mov	w1, #0xfffffffa            	// #-6
   83b68:	b9001801 	str	w1, [x0, #24]
   83b6c:	b0000000 	adrp	x0, 84000 <fonts_init+0x2930>
   83b70:	913a4000 	add	x0, x0, #0xe90
   83b74:	52800081 	mov	w1, #0x4                   	// #4
   83b78:	b9001c01 	str	w1, [x0, #28]
   83b7c:	b0000000 	adrp	x0, 84000 <fonts_init+0x2930>
   83b80:	913a4000 	add	x0, x0, #0xe90
   83b84:	128000a1 	mov	w1, #0xfffffffa            	// #-6
   83b88:	b9002001 	str	w1, [x0, #32]
   83b8c:	b0000000 	adrp	x0, 84000 <fonts_init+0x2930>
   83b90:	913a4000 	add	x0, x0, #0xe90
   83b94:	b900241f 	str	wzr, [x0, #36]
   83b98:	b0000000 	adrp	x0, 84000 <fonts_init+0x2930>
   83b9c:	913a4000 	add	x0, x0, #0xe90
   83ba0:	12800041 	mov	w1, #0xfffffffd            	// #-3
   83ba4:	b9002801 	str	w1, [x0, #40]
   83ba8:	b0000000 	adrp	x0, 84000 <fonts_init+0x2930>
   83bac:	913a4000 	add	x0, x0, #0xe90
   83bb0:	52800081 	mov	w1, #0x4                   	// #4
   83bb4:	b9002c01 	str	w1, [x0, #44]
   83bb8:	b0000000 	adrp	x0, 84000 <fonts_init+0x2930>
   83bbc:	913a4000 	add	x0, x0, #0xe90
   83bc0:	12800041 	mov	w1, #0xfffffffd            	// #-3
   83bc4:	b9003001 	str	w1, [x0, #48]
   83bc8:	b0000000 	adrp	x0, 84000 <fonts_init+0x2930>
   83bcc:	913a4000 	add	x0, x0, #0xe90
   83bd0:	b900341f 	str	wzr, [x0, #52]
   83bd4:	b0000000 	adrp	x0, 84000 <fonts_init+0x2930>
   83bd8:	913a4000 	add	x0, x0, #0xe90
   83bdc:	128000a1 	mov	w1, #0xfffffffa            	// #-6
   83be0:	b9003801 	str	w1, [x0, #56]
   83be4:	b0000000 	adrp	x0, 84000 <fonts_init+0x2930>
   83be8:	913a4000 	add	x0, x0, #0xe90
   83bec:	b9003c1f 	str	wzr, [x0, #60]
   83bf0:	b0000000 	adrp	x0, 84000 <fonts_init+0x2930>
   83bf4:	913a4000 	add	x0, x0, #0xe90
   83bf8:	b900401f 	str	wzr, [x0, #64]
   83bfc:	b0000000 	adrp	x0, 84000 <fonts_init+0x2930>
   83c00:	913a4000 	add	x0, x0, #0xe90
   83c04:	52800081 	mov	w1, #0x4                   	// #4
   83c08:	b9004401 	str	w1, [x0, #68]
   83c0c:	b0000000 	adrp	x0, 84000 <fonts_init+0x2930>
   83c10:	913a4000 	add	x0, x0, #0xe90
   83c14:	b900481f 	str	wzr, [x0, #72]
   83c18:	b0000000 	adrp	x0, 84000 <fonts_init+0x2930>
   83c1c:	913a4000 	add	x0, x0, #0xe90
   83c20:	52800081 	mov	w1, #0x4                   	// #4
   83c24:	b9004c01 	str	w1, [x0, #76]
   83c28:	b0000000 	adrp	x0, 84000 <fonts_init+0x2930>
   83c2c:	913a4000 	add	x0, x0, #0xe90
   83c30:	128000a1 	mov	w1, #0xfffffffa            	// #-6
   83c34:	b9005001 	str	w1, [x0, #80]
   83c38:	b0000000 	adrp	x0, 84000 <fonts_init+0x2930>
   83c3c:	913be001 	add	x1, x0, #0xef8
   83c40:	d2828000 	mov	x0, #0x1400                	// #5120
   83c44:	8b000020 	add	x0, x1, x0
   83c48:	91078002 	add	x2, x0, #0x1e0
   83c4c:	b0000000 	adrp	x0, 84000 <fonts_init+0x2930>
   83c50:	913a4001 	add	x1, x0, #0xe90
   83c54:	aa0203e0 	mov	x0, x2
   83c58:	a9400c22 	ldp	x2, x3, [x1]
   83c5c:	a9000c02 	stp	x2, x3, [x0]
   83c60:	a9410c22 	ldp	x2, x3, [x1, #16]
   83c64:	a9010c02 	stp	x2, x3, [x0, #16]
   83c68:	a9420c22 	ldp	x2, x3, [x1, #32]
   83c6c:	a9020c02 	stp	x2, x3, [x0, #32]
   83c70:	a9430c22 	ldp	x2, x3, [x1, #48]
   83c74:	a9030c02 	stp	x2, x3, [x0, #48]
   83c78:	a9440c22 	ldp	x2, x3, [x1, #64]
   83c7c:	a9040c02 	stp	x2, x3, [x0, #64]
   83c80:	a9450c22 	ldp	x2, x3, [x1, #80]
   83c84:	a9050c02 	stp	x2, x3, [x0, #80]
   83c88:	b9406021 	ldr	w1, [x1, #96]
   83c8c:	b9006001 	str	w1, [x0, #96]
   83c90:	b0000000 	adrp	x0, 84000 <fonts_init+0x2930>
   83c94:	913a4000 	add	x0, x0, #0xe90
   83c98:	528000a1 	mov	w1, #0x5                   	// #5
   83c9c:	b9000001 	str	w1, [x0]
   83ca0:	b0000000 	adrp	x0, 84000 <fonts_init+0x2930>
   83ca4:	913a4000 	add	x0, x0, #0xe90
   83ca8:	b900041f 	str	wzr, [x0, #4]
   83cac:	b0000000 	adrp	x0, 84000 <fonts_init+0x2930>
   83cb0:	913a4000 	add	x0, x0, #0xe90
   83cb4:	b900081f 	str	wzr, [x0, #8]
   83cb8:	b0000000 	adrp	x0, 84000 <fonts_init+0x2930>
   83cbc:	913a4000 	add	x0, x0, #0xe90
   83cc0:	52800081 	mov	w1, #0x4                   	// #4
   83cc4:	b9000c01 	str	w1, [x0, #12]
   83cc8:	b0000000 	adrp	x0, 84000 <fonts_init+0x2930>
   83ccc:	913a4000 	add	x0, x0, #0xe90
   83cd0:	b900101f 	str	wzr, [x0, #16]
   83cd4:	b0000000 	adrp	x0, 84000 <fonts_init+0x2930>
   83cd8:	913a4000 	add	x0, x0, #0xe90
   83cdc:	b900141f 	str	wzr, [x0, #20]
   83ce0:	b0000000 	adrp	x0, 84000 <fonts_init+0x2930>
   83ce4:	913a4000 	add	x0, x0, #0xe90
   83ce8:	128000a1 	mov	w1, #0xfffffffa            	// #-6
   83cec:	b9001801 	str	w1, [x0, #24]
   83cf0:	b0000000 	adrp	x0, 84000 <fonts_init+0x2930>
   83cf4:	913a4000 	add	x0, x0, #0xe90
   83cf8:	52800081 	mov	w1, #0x4                   	// #4
   83cfc:	b9001c01 	str	w1, [x0, #28]
   83d00:	b0000000 	adrp	x0, 84000 <fonts_init+0x2930>
   83d04:	913a4000 	add	x0, x0, #0xe90
   83d08:	128000a1 	mov	w1, #0xfffffffa            	// #-6
   83d0c:	b9002001 	str	w1, [x0, #32]
   83d10:	b0000000 	adrp	x0, 84000 <fonts_init+0x2930>
   83d14:	913a4000 	add	x0, x0, #0xe90
   83d18:	b900241f 	str	wzr, [x0, #36]
   83d1c:	b0000000 	adrp	x0, 84000 <fonts_init+0x2930>
   83d20:	913a4000 	add	x0, x0, #0xe90
   83d24:	12800041 	mov	w1, #0xfffffffd            	// #-3
   83d28:	b9002801 	str	w1, [x0, #40]
   83d2c:	b0000000 	adrp	x0, 84000 <fonts_init+0x2930>
   83d30:	913a4000 	add	x0, x0, #0xe90
   83d34:	52800081 	mov	w1, #0x4                   	// #4
   83d38:	b9002c01 	str	w1, [x0, #44]
   83d3c:	b0000000 	adrp	x0, 84000 <fonts_init+0x2930>
   83d40:	913a4000 	add	x0, x0, #0xe90
   83d44:	12800041 	mov	w1, #0xfffffffd            	// #-3
   83d48:	b9003001 	str	w1, [x0, #48]
   83d4c:	b0000000 	adrp	x0, 84000 <fonts_init+0x2930>
   83d50:	913a4000 	add	x0, x0, #0xe90
   83d54:	b900341f 	str	wzr, [x0, #52]
   83d58:	b0000000 	adrp	x0, 84000 <fonts_init+0x2930>
   83d5c:	913a4000 	add	x0, x0, #0xe90
   83d60:	128000a1 	mov	w1, #0xfffffffa            	// #-6
   83d64:	b9003801 	str	w1, [x0, #56]
   83d68:	b0000000 	adrp	x0, 84000 <fonts_init+0x2930>
   83d6c:	913a4000 	add	x0, x0, #0xe90
   83d70:	b9003c1f 	str	wzr, [x0, #60]
   83d74:	b0000000 	adrp	x0, 84000 <fonts_init+0x2930>
   83d78:	913a4000 	add	x0, x0, #0xe90
   83d7c:	12800041 	mov	w1, #0xfffffffd            	// #-3
   83d80:	b9004001 	str	w1, [x0, #64]
   83d84:	b0000000 	adrp	x0, 84000 <fonts_init+0x2930>
   83d88:	913a4000 	add	x0, x0, #0xe90
   83d8c:	52800081 	mov	w1, #0x4                   	// #4
   83d90:	b9004401 	str	w1, [x0, #68]
   83d94:	b0000000 	adrp	x0, 84000 <fonts_init+0x2930>
   83d98:	913a4000 	add	x0, x0, #0xe90
   83d9c:	b900481f 	str	wzr, [x0, #72]
   83da0:	b0000000 	adrp	x0, 84000 <fonts_init+0x2930>
   83da4:	913a4000 	add	x0, x0, #0xe90
   83da8:	52800081 	mov	w1, #0x4                   	// #4
   83dac:	b9004c01 	str	w1, [x0, #76]
   83db0:	b0000000 	adrp	x0, 84000 <fonts_init+0x2930>
   83db4:	913a4000 	add	x0, x0, #0xe90
   83db8:	128000a1 	mov	w1, #0xfffffffa            	// #-6
   83dbc:	b9005001 	str	w1, [x0, #80]
   83dc0:	b0000000 	adrp	x0, 84000 <fonts_init+0x2930>
   83dc4:	913be001 	add	x1, x0, #0xef8
   83dc8:	d2830000 	mov	x0, #0x1800                	// #6144
   83dcc:	8b000020 	add	x0, x1, x0
   83dd0:	d106f002 	sub	x2, x0, #0x1bc
   83dd4:	b0000000 	adrp	x0, 84000 <fonts_init+0x2930>
   83dd8:	913a4001 	add	x1, x0, #0xe90
   83ddc:	aa0203e0 	mov	x0, x2
   83de0:	a9400c22 	ldp	x2, x3, [x1]
   83de4:	a9000c02 	stp	x2, x3, [x0]
   83de8:	a9410c22 	ldp	x2, x3, [x1, #16]
   83dec:	a9010c02 	stp	x2, x3, [x0, #16]
   83df0:	a9420c22 	ldp	x2, x3, [x1, #32]
   83df4:	a9020c02 	stp	x2, x3, [x0, #32]
   83df8:	a9430c22 	ldp	x2, x3, [x1, #48]
   83dfc:	a9030c02 	stp	x2, x3, [x0, #48]
   83e00:	a9440c22 	ldp	x2, x3, [x1, #64]
   83e04:	a9040c02 	stp	x2, x3, [x0, #64]
   83e08:	a9450c22 	ldp	x2, x3, [x1, #80]
   83e0c:	a9050c02 	stp	x2, x3, [x0, #80]
   83e10:	b9406021 	ldr	w1, [x1, #96]
   83e14:	b9006001 	str	w1, [x0, #96]
   83e18:	b0000000 	adrp	x0, 84000 <fonts_init+0x2930>
   83e1c:	913a4000 	add	x0, x0, #0xe90
   83e20:	528000a1 	mov	w1, #0x5                   	// #5
   83e24:	b9000001 	str	w1, [x0]
   83e28:	b0000000 	adrp	x0, 84000 <fonts_init+0x2930>
   83e2c:	913a4000 	add	x0, x0, #0xe90
   83e30:	b900041f 	str	wzr, [x0, #4]
   83e34:	b0000000 	adrp	x0, 84000 <fonts_init+0x2930>
   83e38:	913a4000 	add	x0, x0, #0xe90
   83e3c:	b900081f 	str	wzr, [x0, #8]
   83e40:	b0000000 	adrp	x0, 84000 <fonts_init+0x2930>
   83e44:	913a4000 	add	x0, x0, #0xe90
   83e48:	52800081 	mov	w1, #0x4                   	// #4
   83e4c:	b9000c01 	str	w1, [x0, #12]
   83e50:	b0000000 	adrp	x0, 84000 <fonts_init+0x2930>
   83e54:	913a4000 	add	x0, x0, #0xe90
   83e58:	b900101f 	str	wzr, [x0, #16]
   83e5c:	b0000000 	adrp	x0, 84000 <fonts_init+0x2930>
   83e60:	913a4000 	add	x0, x0, #0xe90
   83e64:	b900141f 	str	wzr, [x0, #20]
   83e68:	b0000000 	adrp	x0, 84000 <fonts_init+0x2930>
   83e6c:	913a4000 	add	x0, x0, #0xe90
   83e70:	128000a1 	mov	w1, #0xfffffffa            	// #-6
   83e74:	b9001801 	str	w1, [x0, #24]
   83e78:	b0000000 	adrp	x0, 84000 <fonts_init+0x2930>
   83e7c:	913a4000 	add	x0, x0, #0xe90
   83e80:	52800081 	mov	w1, #0x4                   	// #4
   83e84:	b9001c01 	str	w1, [x0, #28]
   83e88:	b0000000 	adrp	x0, 84000 <fonts_init+0x2930>
   83e8c:	913a4000 	add	x0, x0, #0xe90
   83e90:	128000a1 	mov	w1, #0xfffffffa            	// #-6
   83e94:	b9002001 	str	w1, [x0, #32]
   83e98:	b0000000 	adrp	x0, 84000 <fonts_init+0x2930>
   83e9c:	913a4000 	add	x0, x0, #0xe90
   83ea0:	b900241f 	str	wzr, [x0, #36]
   83ea4:	b0000000 	adrp	x0, 84000 <fonts_init+0x2930>
   83ea8:	913a4000 	add	x0, x0, #0xe90
   83eac:	b900281f 	str	wzr, [x0, #40]
   83eb0:	b0000000 	adrp	x0, 84000 <fonts_init+0x2930>
   83eb4:	913a4000 	add	x0, x0, #0xe90
   83eb8:	52800081 	mov	w1, #0x4                   	// #4
   83ebc:	b9002c01 	str	w1, [x0, #44]
   83ec0:	b0000000 	adrp	x0, 84000 <fonts_init+0x2930>
   83ec4:	913a4000 	add	x0, x0, #0xe90
   83ec8:	128000a1 	mov	w1, #0xfffffffa            	// #-6
   83ecc:	b9003001 	str	w1, [x0, #48]
   83ed0:	b0000000 	adrp	x0, 84000 <fonts_init+0x2930>
   83ed4:	913a4000 	add	x0, x0, #0xe90
   83ed8:	b900341f 	str	wzr, [x0, #52]
   83edc:	b0000000 	adrp	x0, 84000 <fonts_init+0x2930>
   83ee0:	913a4000 	add	x0, x0, #0xe90
   83ee4:	128000a1 	mov	w1, #0xfffffffa            	// #-6
   83ee8:	b9003801 	str	w1, [x0, #56]
   83eec:	b0000000 	adrp	x0, 84000 <fonts_init+0x2930>
   83ef0:	913a4000 	add	x0, x0, #0xe90
   83ef4:	b9003c1f 	str	wzr, [x0, #60]
   83ef8:	b0000000 	adrp	x0, 84000 <fonts_init+0x2930>
   83efc:	913a4000 	add	x0, x0, #0xe90
   83f00:	b900401f 	str	wzr, [x0, #64]
   83f04:	b0000000 	adrp	x0, 84000 <fonts_init+0x2930>
   83f08:	913a4000 	add	x0, x0, #0xe90
   83f0c:	52800081 	mov	w1, #0x4                   	// #4
   83f10:	b9004401 	str	w1, [x0, #68]
   83f14:	b0000000 	adrp	x0, 84000 <fonts_init+0x2930>
   83f18:	913a4000 	add	x0, x0, #0xe90
   83f1c:	b900481f 	str	wzr, [x0, #72]
   83f20:	b0000000 	adrp	x0, 84000 <fonts_init+0x2930>
   83f24:	913a4000 	add	x0, x0, #0xe90
   83f28:	52800081 	mov	w1, #0x4                   	// #4
   83f2c:	b9004c01 	str	w1, [x0, #76]
   83f30:	b0000000 	adrp	x0, 84000 <fonts_init+0x2930>
   83f34:	913a4000 	add	x0, x0, #0xe90
   83f38:	128000a1 	mov	w1, #0xfffffffa            	// #-6
   83f3c:	b9005001 	str	w1, [x0, #80]
   83f40:	b0000000 	adrp	x0, 84000 <fonts_init+0x2930>
   83f44:	913be001 	add	x1, x0, #0xef8
   83f48:	d2828000 	mov	x0, #0x1400                	// #5120
   83f4c:	8b000020 	add	x0, x1, x0
   83f50:	d1050002 	sub	x2, x0, #0x140
   83f54:	b0000000 	adrp	x0, 84000 <fonts_init+0x2930>
   83f58:	913a4001 	add	x1, x0, #0xe90
   83f5c:	aa0203e0 	mov	x0, x2
   83f60:	a9400c22 	ldp	x2, x3, [x1]
   83f64:	a9000c02 	stp	x2, x3, [x0]
   83f68:	a9410c22 	ldp	x2, x3, [x1, #16]
   83f6c:	a9010c02 	stp	x2, x3, [x0, #16]
   83f70:	a9420c22 	ldp	x2, x3, [x1, #32]
   83f74:	a9020c02 	stp	x2, x3, [x0, #32]
   83f78:	a9430c22 	ldp	x2, x3, [x1, #48]
   83f7c:	a9030c02 	stp	x2, x3, [x0, #48]
   83f80:	a9440c22 	ldp	x2, x3, [x1, #64]
   83f84:	a9040c02 	stp	x2, x3, [x0, #64]
   83f88:	a9450c22 	ldp	x2, x3, [x1, #80]
   83f8c:	a9050c02 	stp	x2, x3, [x0, #80]
   83f90:	b9406021 	ldr	w1, [x1, #96]
   83f94:	b9006001 	str	w1, [x0, #96]
   83f98:	b0000000 	adrp	x0, 84000 <fonts_init+0x2930>
   83f9c:	913a4000 	add	x0, x0, #0xe90
   83fa0:	52800081 	mov	w1, #0x4                   	// #4
   83fa4:	b9000001 	str	w1, [x0]
   83fa8:	b0000000 	adrp	x0, 84000 <fonts_init+0x2930>
   83fac:	913a4000 	add	x0, x0, #0xe90
   83fb0:	b900041f 	str	wzr, [x0, #4]
   83fb4:	b0000000 	adrp	x0, 84000 <fonts_init+0x2930>
   83fb8:	913a4000 	add	x0, x0, #0xe90
   83fbc:	b900081f 	str	wzr, [x0, #8]
   83fc0:	b0000000 	adrp	x0, 84000 <fonts_init+0x2930>
   83fc4:	913a4000 	add	x0, x0, #0xe90
   83fc8:	52800081 	mov	w1, #0x4                   	// #4
   83fcc:	b9000c01 	str	w1, [x0, #12]
   83fd0:	b0000000 	adrp	x0, 84000 <fonts_init+0x2930>
   83fd4:	913a4000 	add	x0, x0, #0xe90
   83fd8:	12800021 	mov	w1, #0xfffffffe            	// #-2
   83fdc:	b9001001 	str	w1, [x0, #16]
   83fe0:	b0000000 	adrp	x0, 84000 <fonts_init+0x2930>
   83fe4:	913a4000 	add	x0, x0, #0xe90
   83fe8:	52800081 	mov	w1, #0x4                   	// #4
   83fec:	b9001401 	str	w1, [x0, #20]
   83ff0:	b0000000 	adrp	x0, 84000 <fonts_init+0x2930>
   83ff4:	913a4000 	add	x0, x0, #0xe90
   83ff8:	12800021 	mov	w1, #0xfffffffe            	// #-2
   83ffc:	b9001801 	str	w1, [x0, #24]
   84000:	90000000 	adrp	x0, 84000 <fonts_init+0x2930>
   84004:	913a4000 	add	x0, x0, #0xe90
   84008:	b9001c1f 	str	wzr, [x0, #28]
   8400c:	90000000 	adrp	x0, 84000 <fonts_init+0x2930>
   84010:	913a4000 	add	x0, x0, #0xe90
   84014:	12800061 	mov	w1, #0xfffffffc            	// #-4
   84018:	b9002001 	str	w1, [x0, #32]
   8401c:	90000000 	adrp	x0, 84000 <fonts_init+0x2930>
   84020:	913a4000 	add	x0, x0, #0xe90
   84024:	b900241f 	str	wzr, [x0, #36]
   84028:	90000000 	adrp	x0, 84000 <fonts_init+0x2930>
   8402c:	913a4000 	add	x0, x0, #0xe90
   84030:	12800061 	mov	w1, #0xfffffffc            	// #-4
   84034:	b9002801 	str	w1, [x0, #40]
   84038:	90000000 	adrp	x0, 84000 <fonts_init+0x2930>
   8403c:	913a4000 	add	x0, x0, #0xe90
   84040:	52800081 	mov	w1, #0x4                   	// #4
   84044:	b9002c01 	str	w1, [x0, #44]
   84048:	90000000 	adrp	x0, 84000 <fonts_init+0x2930>
   8404c:	913a4000 	add	x0, x0, #0xe90
   84050:	128000a1 	mov	w1, #0xfffffffa            	// #-6
   84054:	b9003001 	str	w1, [x0, #48]
   84058:	90000000 	adrp	x0, 84000 <fonts_init+0x2930>
   8405c:	913a4000 	add	x0, x0, #0xe90
   84060:	52800041 	mov	w1, #0x2                   	// #2
   84064:	b9003401 	str	w1, [x0, #52]
   84068:	90000000 	adrp	x0, 84000 <fonts_init+0x2930>
   8406c:	913a4000 	add	x0, x0, #0xe90
   84070:	128000a1 	mov	w1, #0xfffffffa            	// #-6
   84074:	b9003801 	str	w1, [x0, #56]
   84078:	90000000 	adrp	x0, 84000 <fonts_init+0x2930>
   8407c:	913a4000 	add	x0, x0, #0xe90
   84080:	52800041 	mov	w1, #0x2                   	// #2
   84084:	b9003c01 	str	w1, [x0, #60]
   84088:	90000000 	adrp	x0, 84000 <fonts_init+0x2930>
   8408c:	913a4000 	add	x0, x0, #0xe90
   84090:	b900401f 	str	wzr, [x0, #64]
   84094:	90000000 	adrp	x0, 84000 <fonts_init+0x2930>
   84098:	913be000 	add	x0, x0, #0xef8
   8409c:	91400400 	add	x0, x0, #0x1, lsl #12
   840a0:	d107c002 	sub	x2, x0, #0x1f0
   840a4:	90000000 	adrp	x0, 84000 <fonts_init+0x2930>
   840a8:	913a4001 	add	x1, x0, #0xe90
   840ac:	aa0203e0 	mov	x0, x2
   840b0:	a9400c22 	ldp	x2, x3, [x1]
   840b4:	a9000c02 	stp	x2, x3, [x0]
   840b8:	a9410c22 	ldp	x2, x3, [x1, #16]
   840bc:	a9010c02 	stp	x2, x3, [x0, #16]
   840c0:	a9420c22 	ldp	x2, x3, [x1, #32]
   840c4:	a9020c02 	stp	x2, x3, [x0, #32]
   840c8:	a9430c22 	ldp	x2, x3, [x1, #48]
   840cc:	a9030c02 	stp	x2, x3, [x0, #48]
   840d0:	a9440c22 	ldp	x2, x3, [x1, #64]
   840d4:	a9040c02 	stp	x2, x3, [x0, #64]
   840d8:	a9450c22 	ldp	x2, x3, [x1, #80]
   840dc:	a9050c02 	stp	x2, x3, [x0, #80]
   840e0:	b9406021 	ldr	w1, [x1, #96]
   840e4:	b9006001 	str	w1, [x0, #96]
   840e8:	90000000 	adrp	x0, 84000 <fonts_init+0x2930>
   840ec:	913a4000 	add	x0, x0, #0xe90
   840f0:	52800041 	mov	w1, #0x2                   	// #2
   840f4:	b9000001 	str	w1, [x0]
   840f8:	90000000 	adrp	x0, 84000 <fonts_init+0x2930>
   840fc:	913a4000 	add	x0, x0, #0xe90
   84100:	52800041 	mov	w1, #0x2                   	// #2
   84104:	b9000401 	str	w1, [x0, #4]
   84108:	90000000 	adrp	x0, 84000 <fonts_init+0x2930>
   8410c:	913a4000 	add	x0, x0, #0xe90
   84110:	b900081f 	str	wzr, [x0, #8]
   84114:	90000000 	adrp	x0, 84000 <fonts_init+0x2930>
   84118:	913a4000 	add	x0, x0, #0xe90
   8411c:	52800041 	mov	w1, #0x2                   	// #2
   84120:	b9000c01 	str	w1, [x0, #12]
   84124:	90000000 	adrp	x0, 84000 <fonts_init+0x2930>
   84128:	913a4000 	add	x0, x0, #0xe90
   8412c:	12800001 	mov	w1, #0xffffffff            	// #-1
   84130:	b9001001 	str	w1, [x0, #16]
   84134:	90000000 	adrp	x0, 84000 <fonts_init+0x2930>
   84138:	913a4000 	add	x0, x0, #0xe90
   8413c:	52800041 	mov	w1, #0x2                   	// #2
   84140:	b9001401 	str	w1, [x0, #20]
   84144:	90000000 	adrp	x0, 84000 <fonts_init+0x2930>
   84148:	913a4000 	add	x0, x0, #0xe90
   8414c:	12800041 	mov	w1, #0xfffffffd            	// #-3
   84150:	b9001801 	str	w1, [x0, #24]
   84154:	90000000 	adrp	x0, 84000 <fonts_init+0x2930>
   84158:	913a4000 	add	x0, x0, #0xe90
   8415c:	52800041 	mov	w1, #0x2                   	// #2
   84160:	b9001c01 	str	w1, [x0, #28]
   84164:	90000000 	adrp	x0, 84000 <fonts_init+0x2930>
   84168:	913a4000 	add	x0, x0, #0xe90
   8416c:	128000a1 	mov	w1, #0xfffffffa            	// #-6
   84170:	b9002001 	str	w1, [x0, #32]
   84174:	90000000 	adrp	x0, 84000 <fonts_init+0x2930>
   84178:	913be000 	add	x0, x0, #0xef8
   8417c:	91300000 	add	x0, x0, #0xc00
   84180:	91039002 	add	x2, x0, #0xe4
   84184:	90000000 	adrp	x0, 84000 <fonts_init+0x2930>
   84188:	913a4001 	add	x1, x0, #0xe90
   8418c:	aa0203e0 	mov	x0, x2
   84190:	a9400c22 	ldp	x2, x3, [x1]
   84194:	a9000c02 	stp	x2, x3, [x0]
   84198:	a9410c22 	ldp	x2, x3, [x1, #16]
   8419c:	a9010c02 	stp	x2, x3, [x0, #16]
   841a0:	a9420c22 	ldp	x2, x3, [x1, #32]
   841a4:	a9020c02 	stp	x2, x3, [x0, #32]
   841a8:	a9430c22 	ldp	x2, x3, [x1, #48]
   841ac:	a9030c02 	stp	x2, x3, [x0, #48]
   841b0:	a9440c22 	ldp	x2, x3, [x1, #64]
   841b4:	a9040c02 	stp	x2, x3, [x0, #64]
   841b8:	a9450c22 	ldp	x2, x3, [x1, #80]
   841bc:	a9050c02 	stp	x2, x3, [x0, #80]
   841c0:	b9406021 	ldr	w1, [x1, #96]
   841c4:	b9006001 	str	w1, [x0, #96]
   841c8:	90000000 	adrp	x0, 84000 <fonts_init+0x2930>
   841cc:	913a4000 	add	x0, x0, #0xe90
   841d0:	528000c1 	mov	w1, #0x6                   	// #6
   841d4:	b9000001 	str	w1, [x0]
   841d8:	90000000 	adrp	x0, 84000 <fonts_init+0x2930>
   841dc:	913a4000 	add	x0, x0, #0xe90
   841e0:	52800041 	mov	w1, #0x2                   	// #2
   841e4:	b9000401 	str	w1, [x0, #4]
   841e8:	90000000 	adrp	x0, 84000 <fonts_init+0x2930>
   841ec:	913a4000 	add	x0, x0, #0xe90
   841f0:	b900081f 	str	wzr, [x0, #8]
   841f4:	90000000 	adrp	x0, 84000 <fonts_init+0x2930>
   841f8:	913a4000 	add	x0, x0, #0xe90
   841fc:	52800041 	mov	w1, #0x2                   	// #2
   84200:	b9000c01 	str	w1, [x0, #12]
   84204:	90000000 	adrp	x0, 84000 <fonts_init+0x2930>
   84208:	913a4000 	add	x0, x0, #0xe90
   8420c:	12800001 	mov	w1, #0xffffffff            	// #-1
   84210:	b9001001 	str	w1, [x0, #16]
   84214:	90000000 	adrp	x0, 84000 <fonts_init+0x2930>
   84218:	913a4000 	add	x0, x0, #0xe90
   8421c:	52800041 	mov	w1, #0x2                   	// #2
   84220:	b9001401 	str	w1, [x0, #20]
   84224:	90000000 	adrp	x0, 84000 <fonts_init+0x2930>
   84228:	913a4000 	add	x0, x0, #0xe90
   8422c:	12800041 	mov	w1, #0xfffffffd            	// #-3
   84230:	b9001801 	str	w1, [x0, #24]
   84234:	90000000 	adrp	x0, 84000 <fonts_init+0x2930>
   84238:	913a4000 	add	x0, x0, #0xe90
   8423c:	52800041 	mov	w1, #0x2                   	// #2
   84240:	b9001c01 	str	w1, [x0, #28]
   84244:	90000000 	adrp	x0, 84000 <fonts_init+0x2930>
   84248:	913a4000 	add	x0, x0, #0xe90
   8424c:	12800041 	mov	w1, #0xfffffffd            	// #-3
   84250:	b9002001 	str	w1, [x0, #32]
   84254:	90000000 	adrp	x0, 84000 <fonts_init+0x2930>
   84258:	913a4000 	add	x0, x0, #0xe90
   8425c:	52800041 	mov	w1, #0x2                   	// #2
   84260:	b9002401 	str	w1, [x0, #36]
   84264:	90000000 	adrp	x0, 84000 <fonts_init+0x2930>
   84268:	913a4000 	add	x0, x0, #0xe90
   8426c:	12800041 	mov	w1, #0xfffffffd            	// #-3
   84270:	b9002801 	str	w1, [x0, #40]
   84274:	90000000 	adrp	x0, 84000 <fonts_init+0x2930>
   84278:	913a4000 	add	x0, x0, #0xe90
   8427c:	52800081 	mov	w1, #0x4                   	// #4
   84280:	b9002c01 	str	w1, [x0, #44]
   84284:	90000000 	adrp	x0, 84000 <fonts_init+0x2930>
   84288:	913a4000 	add	x0, x0, #0xe90
   8428c:	12800041 	mov	w1, #0xfffffffd            	// #-3
   84290:	b9003001 	str	w1, [x0, #48]
   84294:	90000000 	adrp	x0, 84000 <fonts_init+0x2930>
   84298:	913a4000 	add	x0, x0, #0xe90
   8429c:	52800081 	mov	w1, #0x4                   	// #4
   842a0:	b9003401 	str	w1, [x0, #52]
   842a4:	90000000 	adrp	x0, 84000 <fonts_init+0x2930>
   842a8:	913a4000 	add	x0, x0, #0xe90
   842ac:	12800041 	mov	w1, #0xfffffffd            	// #-3
   842b0:	b9003801 	str	w1, [x0, #56]
   842b4:	90000000 	adrp	x0, 84000 <fonts_init+0x2930>
   842b8:	913a4000 	add	x0, x0, #0xe90
   842bc:	52800081 	mov	w1, #0x4                   	// #4
   842c0:	b9003c01 	str	w1, [x0, #60]
   842c4:	90000000 	adrp	x0, 84000 <fonts_init+0x2930>
   842c8:	913a4000 	add	x0, x0, #0xe90
   842cc:	128000a1 	mov	w1, #0xfffffffa            	// #-6
   842d0:	b9004001 	str	w1, [x0, #64]
   842d4:	90000000 	adrp	x0, 84000 <fonts_init+0x2930>
   842d8:	913a4000 	add	x0, x0, #0xe90
   842dc:	52800081 	mov	w1, #0x4                   	// #4
   842e0:	b9004401 	str	w1, [x0, #68]
   842e4:	90000000 	adrp	x0, 84000 <fonts_init+0x2930>
   842e8:	913a4000 	add	x0, x0, #0xe90
   842ec:	128000a1 	mov	w1, #0xfffffffa            	// #-6
   842f0:	b9004801 	str	w1, [x0, #72]
   842f4:	90000000 	adrp	x0, 84000 <fonts_init+0x2930>
   842f8:	913a4000 	add	x0, x0, #0xe90
   842fc:	b9004c1f 	str	wzr, [x0, #76]
   84300:	90000000 	adrp	x0, 84000 <fonts_init+0x2930>
   84304:	913a4000 	add	x0, x0, #0xe90
   84308:	128000a1 	mov	w1, #0xfffffffa            	// #-6
   8430c:	b9005001 	str	w1, [x0, #80]
   84310:	90000000 	adrp	x0, 84000 <fonts_init+0x2930>
   84314:	913a4000 	add	x0, x0, #0xe90
   84318:	b900541f 	str	wzr, [x0, #84]
   8431c:	90000000 	adrp	x0, 84000 <fonts_init+0x2930>
   84320:	913a4000 	add	x0, x0, #0xe90
   84324:	128000a1 	mov	w1, #0xfffffffa            	// #-6
   84328:	b9005801 	str	w1, [x0, #88]
   8432c:	90000000 	adrp	x0, 84000 <fonts_init+0x2930>
   84330:	913a4000 	add	x0, x0, #0xe90
   84334:	b9005c1f 	str	wzr, [x0, #92]
   84338:	90000000 	adrp	x0, 84000 <fonts_init+0x2930>
   8433c:	913a4000 	add	x0, x0, #0xe90
   84340:	12800081 	mov	w1, #0xfffffffb            	// #-5
   84344:	b9006001 	str	w1, [x0, #96]
   84348:	90000000 	adrp	x0, 84000 <fonts_init+0x2930>
   8434c:	913be001 	add	x1, x0, #0xef8
   84350:	d2830000 	mov	x0, #0x1800                	// #6144
   84354:	8b000020 	add	x0, x1, x0
   84358:	91027002 	add	x2, x0, #0x9c
   8435c:	90000000 	adrp	x0, 84000 <fonts_init+0x2930>
   84360:	913a4001 	add	x1, x0, #0xe90
   84364:	aa0203e0 	mov	x0, x2
   84368:	a9400c22 	ldp	x2, x3, [x1]
   8436c:	a9000c02 	stp	x2, x3, [x0]
   84370:	a9410c22 	ldp	x2, x3, [x1, #16]
   84374:	a9010c02 	stp	x2, x3, [x0, #16]
   84378:	a9420c22 	ldp	x2, x3, [x1, #32]
   8437c:	a9020c02 	stp	x2, x3, [x0, #32]
   84380:	a9430c22 	ldp	x2, x3, [x1, #48]
   84384:	a9030c02 	stp	x2, x3, [x0, #48]
   84388:	a9440c22 	ldp	x2, x3, [x1, #64]
   8438c:	a9040c02 	stp	x2, x3, [x0, #64]
   84390:	a9450c22 	ldp	x2, x3, [x1, #80]
   84394:	a9050c02 	stp	x2, x3, [x0, #80]
   84398:	b9406021 	ldr	w1, [x1, #96]
   8439c:	b9006001 	str	w1, [x0, #96]
   843a0:	90000000 	adrp	x0, 84000 <fonts_init+0x2930>
   843a4:	913a4000 	add	x0, x0, #0xe90
   843a8:	52800041 	mov	w1, #0x2                   	// #2
   843ac:	b9000001 	str	w1, [x0]
   843b0:	90000000 	adrp	x0, 84000 <fonts_init+0x2930>
   843b4:	913a4000 	add	x0, x0, #0xe90
   843b8:	52800041 	mov	w1, #0x2                   	// #2
   843bc:	b9000401 	str	w1, [x0, #4]
   843c0:	90000000 	adrp	x0, 84000 <fonts_init+0x2930>
   843c4:	913a4000 	add	x0, x0, #0xe90
   843c8:	12800041 	mov	w1, #0xfffffffd            	// #-3
   843cc:	b9000801 	str	w1, [x0, #8]
   843d0:	90000000 	adrp	x0, 84000 <fonts_init+0x2930>
   843d4:	913a4000 	add	x0, x0, #0xe90
   843d8:	52800041 	mov	w1, #0x2                   	// #2
   843dc:	b9000c01 	str	w1, [x0, #12]
   843e0:	90000000 	adrp	x0, 84000 <fonts_init+0x2930>
   843e4:	913a4000 	add	x0, x0, #0xe90
   843e8:	12800061 	mov	w1, #0xfffffffc            	// #-4
   843ec:	b9001001 	str	w1, [x0, #16]
   843f0:	90000000 	adrp	x0, 84000 <fonts_init+0x2930>
   843f4:	913a4000 	add	x0, x0, #0xe90
   843f8:	52800041 	mov	w1, #0x2                   	// #2
   843fc:	b9001401 	str	w1, [x0, #20]
   84400:	90000000 	adrp	x0, 84000 <fonts_init+0x2930>
   84404:	913a4000 	add	x0, x0, #0xe90
   84408:	12800001 	mov	w1, #0xffffffff            	// #-1
   8440c:	b9001801 	str	w1, [x0, #24]
   84410:	90000000 	adrp	x0, 84000 <fonts_init+0x2930>
   84414:	913a4000 	add	x0, x0, #0xe90
   84418:	52800041 	mov	w1, #0x2                   	// #2
   8441c:	b9001c01 	str	w1, [x0, #28]
   84420:	90000000 	adrp	x0, 84000 <fonts_init+0x2930>
   84424:	913a4000 	add	x0, x0, #0xe90
   84428:	b900201f 	str	wzr, [x0, #32]
   8442c:	90000000 	adrp	x0, 84000 <fonts_init+0x2930>
   84430:	913be001 	add	x1, x0, #0xef8
   84434:	d2830000 	mov	x0, #0x1800                	// #6144
   84438:	8b000020 	add	x0, x1, x0
   8443c:	d1056002 	sub	x2, x0, #0x158
   84440:	90000000 	adrp	x0, 84000 <fonts_init+0x2930>
   84444:	913a4001 	add	x1, x0, #0xe90
   84448:	aa0203e0 	mov	x0, x2
   8444c:	a9400c22 	ldp	x2, x3, [x1]
   84450:	a9000c02 	stp	x2, x3, [x0]
   84454:	a9410c22 	ldp	x2, x3, [x1, #16]
   84458:	a9010c02 	stp	x2, x3, [x0, #16]
   8445c:	a9420c22 	ldp	x2, x3, [x1, #32]
   84460:	a9020c02 	stp	x2, x3, [x0, #32]
   84464:	a9430c22 	ldp	x2, x3, [x1, #48]
   84468:	a9030c02 	stp	x2, x3, [x0, #48]
   8446c:	a9440c22 	ldp	x2, x3, [x1, #64]
   84470:	a9040c02 	stp	x2, x3, [x0, #64]
   84474:	a9450c22 	ldp	x2, x3, [x1, #80]
   84478:	a9050c02 	stp	x2, x3, [x0, #80]
   8447c:	b9406021 	ldr	w1, [x1, #96]
   84480:	b9006001 	str	w1, [x0, #96]
   84484:	90000000 	adrp	x0, 84000 <fonts_init+0x2930>
   84488:	913a4000 	add	x0, x0, #0xe90
   8448c:	52800041 	mov	w1, #0x2                   	// #2
   84490:	b9000001 	str	w1, [x0]
   84494:	90000000 	adrp	x0, 84000 <fonts_init+0x2930>
   84498:	913a4000 	add	x0, x0, #0xe90
   8449c:	52800041 	mov	w1, #0x2                   	// #2
   844a0:	b9000401 	str	w1, [x0, #4]
   844a4:	90000000 	adrp	x0, 84000 <fonts_init+0x2930>
   844a8:	913a4000 	add	x0, x0, #0xe90
   844ac:	128000a1 	mov	w1, #0xfffffffa            	// #-6
   844b0:	b9000801 	str	w1, [x0, #8]
   844b4:	90000000 	adrp	x0, 84000 <fonts_init+0x2930>
   844b8:	913a4000 	add	x0, x0, #0xe90
   844bc:	b9000c1f 	str	wzr, [x0, #12]
   844c0:	90000000 	adrp	x0, 84000 <fonts_init+0x2930>
   844c4:	913a4000 	add	x0, x0, #0xe90
   844c8:	12800041 	mov	w1, #0xfffffffd            	// #-3
   844cc:	b9001001 	str	w1, [x0, #16]
   844d0:	90000000 	adrp	x0, 84000 <fonts_init+0x2930>
   844d4:	913a4000 	add	x0, x0, #0xe90
   844d8:	b900141f 	str	wzr, [x0, #20]
   844dc:	90000000 	adrp	x0, 84000 <fonts_init+0x2930>
   844e0:	913a4000 	add	x0, x0, #0xe90
   844e4:	12800041 	mov	w1, #0xfffffffd            	// #-3
   844e8:	b9001801 	str	w1, [x0, #24]
   844ec:	90000000 	adrp	x0, 84000 <fonts_init+0x2930>
   844f0:	913a4000 	add	x0, x0, #0xe90
   844f4:	52800041 	mov	w1, #0x2                   	// #2
   844f8:	b9001c01 	str	w1, [x0, #28]
   844fc:	90000000 	adrp	x0, 84000 <fonts_init+0x2930>
   84500:	913a4000 	add	x0, x0, #0xe90
   84504:	b900201f 	str	wzr, [x0, #32]
   84508:	90000000 	adrp	x0, 84000 <fonts_init+0x2930>
   8450c:	913be000 	add	x0, x0, #0xef8
   84510:	91400400 	add	x0, x0, #0x1, lsl #12
   84514:	d1018002 	sub	x2, x0, #0x60
   84518:	90000000 	adrp	x0, 84000 <fonts_init+0x2930>
   8451c:	913a4001 	add	x1, x0, #0xe90
   84520:	aa0203e0 	mov	x0, x2
   84524:	a9400c22 	ldp	x2, x3, [x1]
   84528:	a9000c02 	stp	x2, x3, [x0]
   8452c:	a9410c22 	ldp	x2, x3, [x1, #16]
   84530:	a9010c02 	stp	x2, x3, [x0, #16]
   84534:	a9420c22 	ldp	x2, x3, [x1, #32]
   84538:	a9020c02 	stp	x2, x3, [x0, #32]
   8453c:	a9430c22 	ldp	x2, x3, [x1, #48]
   84540:	a9030c02 	stp	x2, x3, [x0, #48]
   84544:	a9440c22 	ldp	x2, x3, [x1, #64]
   84548:	a9040c02 	stp	x2, x3, [x0, #64]
   8454c:	a9450c22 	ldp	x2, x3, [x1, #80]
   84550:	a9050c02 	stp	x2, x3, [x0, #80]
   84554:	b9406021 	ldr	w1, [x1, #96]
   84558:	b9006001 	str	w1, [x0, #96]
   8455c:	90000000 	adrp	x0, 84000 <fonts_init+0x2930>
   84560:	913a4000 	add	x0, x0, #0xe90
   84564:	52800041 	mov	w1, #0x2                   	// #2
   84568:	b9000001 	str	w1, [x0]
   8456c:	90000000 	adrp	x0, 84000 <fonts_init+0x2930>
   84570:	913a4000 	add	x0, x0, #0xe90
   84574:	52800041 	mov	w1, #0x2                   	// #2
   84578:	b9000401 	str	w1, [x0, #4]
   8457c:	90000000 	adrp	x0, 84000 <fonts_init+0x2930>
   84580:	913a4000 	add	x0, x0, #0xe90
   84584:	128000a1 	mov	w1, #0xfffffffa            	// #-6
   84588:	b9000801 	str	w1, [x0, #8]
   8458c:	90000000 	adrp	x0, 84000 <fonts_init+0x2930>
   84590:	913a4000 	add	x0, x0, #0xe90
   84594:	52800081 	mov	w1, #0x4                   	// #4
   84598:	b9000c01 	str	w1, [x0, #12]
   8459c:	90000000 	adrp	x0, 84000 <fonts_init+0x2930>
   845a0:	913a4000 	add	x0, x0, #0xe90
   845a4:	12800041 	mov	w1, #0xfffffffd            	// #-3
   845a8:	b9001001 	str	w1, [x0, #16]
   845ac:	90000000 	adrp	x0, 84000 <fonts_init+0x2930>
   845b0:	913a4000 	add	x0, x0, #0xe90
   845b4:	52800081 	mov	w1, #0x4                   	// #4
   845b8:	b9001401 	str	w1, [x0, #20]
   845bc:	90000000 	adrp	x0, 84000 <fonts_init+0x2930>
   845c0:	913a4000 	add	x0, x0, #0xe90
   845c4:	12800041 	mov	w1, #0xfffffffd            	// #-3
   845c8:	b9001801 	str	w1, [x0, #24]
   845cc:	90000000 	adrp	x0, 84000 <fonts_init+0x2930>
   845d0:	913a4000 	add	x0, x0, #0xe90
   845d4:	52800041 	mov	w1, #0x2                   	// #2
   845d8:	b9001c01 	str	w1, [x0, #28]
   845dc:	90000000 	adrp	x0, 84000 <fonts_init+0x2930>
   845e0:	913a4000 	add	x0, x0, #0xe90
   845e4:	b900201f 	str	wzr, [x0, #32]
   845e8:	90000000 	adrp	x0, 84000 <fonts_init+0x2930>
   845ec:	913be000 	add	x0, x0, #0xef8
   845f0:	91400400 	add	x0, x0, #0x1, lsl #12
   845f4:	91001002 	add	x2, x0, #0x4
   845f8:	90000000 	adrp	x0, 84000 <fonts_init+0x2930>
   845fc:	913a4001 	add	x1, x0, #0xe90
   84600:	aa0203e0 	mov	x0, x2
   84604:	a9400c22 	ldp	x2, x3, [x1]
   84608:	a9000c02 	stp	x2, x3, [x0]
   8460c:	a9410c22 	ldp	x2, x3, [x1, #16]
   84610:	a9010c02 	stp	x2, x3, [x0, #16]
   84614:	a9420c22 	ldp	x2, x3, [x1, #32]
   84618:	a9020c02 	stp	x2, x3, [x0, #32]
   8461c:	a9430c22 	ldp	x2, x3, [x1, #48]
   84620:	a9030c02 	stp	x2, x3, [x0, #48]
   84624:	a9440c22 	ldp	x2, x3, [x1, #64]
   84628:	a9040c02 	stp	x2, x3, [x0, #64]
   8462c:	a9450c22 	ldp	x2, x3, [x1, #80]
   84630:	a9050c02 	stp	x2, x3, [x0, #80]
   84634:	b9406021 	ldr	w1, [x1, #96]
   84638:	b9006001 	str	w1, [x0, #96]
   8463c:	90000000 	adrp	x0, 84000 <fonts_init+0x2930>
   84640:	913a4000 	add	x0, x0, #0xe90
   84644:	52800041 	mov	w1, #0x2                   	// #2
   84648:	b9000001 	str	w1, [x0]
   8464c:	90000000 	adrp	x0, 84000 <fonts_init+0x2930>
   84650:	913a4000 	add	x0, x0, #0xe90
   84654:	b900041f 	str	wzr, [x0, #4]
   84658:	90000000 	adrp	x0, 84000 <fonts_init+0x2930>
   8465c:	913a4000 	add	x0, x0, #0xe90
   84660:	12800041 	mov	w1, #0xfffffffd            	// #-3
   84664:	b9000801 	str	w1, [x0, #8]
   84668:	90000000 	adrp	x0, 84000 <fonts_init+0x2930>
   8466c:	913a4000 	add	x0, x0, #0xe90
   84670:	52800081 	mov	w1, #0x4                   	// #4
   84674:	b9000c01 	str	w1, [x0, #12]
   84678:	90000000 	adrp	x0, 84000 <fonts_init+0x2930>
   8467c:	913a4000 	add	x0, x0, #0xe90
   84680:	12800041 	mov	w1, #0xfffffffd            	// #-3
   84684:	b9001001 	str	w1, [x0, #16]
   84688:	90000000 	adrp	x0, 84000 <fonts_init+0x2930>
   8468c:	913a4000 	add	x0, x0, #0xe90
   84690:	52800041 	mov	w1, #0x2                   	// #2
   84694:	b9001401 	str	w1, [x0, #20]
   84698:	90000000 	adrp	x0, 84000 <fonts_init+0x2930>
   8469c:	913a4000 	add	x0, x0, #0xe90
   846a0:	128000a1 	mov	w1, #0xfffffffa            	// #-6
   846a4:	b9001801 	str	w1, [x0, #24]
   846a8:	90000000 	adrp	x0, 84000 <fonts_init+0x2930>
   846ac:	913a4000 	add	x0, x0, #0xe90
   846b0:	52800041 	mov	w1, #0x2                   	// #2
   846b4:	b9001c01 	str	w1, [x0, #28]
   846b8:	90000000 	adrp	x0, 84000 <fonts_init+0x2930>
   846bc:	913a4000 	add	x0, x0, #0xe90
   846c0:	b900201f 	str	wzr, [x0, #32]
   846c4:	90000000 	adrp	x0, 84000 <fonts_init+0x2930>
   846c8:	913be000 	add	x0, x0, #0xef8
   846cc:	91400400 	add	x0, x0, #0x1, lsl #12
   846d0:	91033002 	add	x2, x0, #0xcc
   846d4:	90000000 	adrp	x0, 84000 <fonts_init+0x2930>
   846d8:	913a4001 	add	x1, x0, #0xe90
   846dc:	aa0203e0 	mov	x0, x2
   846e0:	a9400c22 	ldp	x2, x3, [x1]
   846e4:	a9000c02 	stp	x2, x3, [x0]
   846e8:	a9410c22 	ldp	x2, x3, [x1, #16]
   846ec:	a9010c02 	stp	x2, x3, [x0, #16]
   846f0:	a9420c22 	ldp	x2, x3, [x1, #32]
   846f4:	a9020c02 	stp	x2, x3, [x0, #32]
   846f8:	a9430c22 	ldp	x2, x3, [x1, #48]
   846fc:	a9030c02 	stp	x2, x3, [x0, #48]
   84700:	a9440c22 	ldp	x2, x3, [x1, #64]
   84704:	a9040c02 	stp	x2, x3, [x0, #64]
   84708:	a9450c22 	ldp	x2, x3, [x1, #80]
   8470c:	a9050c02 	stp	x2, x3, [x0, #80]
   84710:	b9406021 	ldr	w1, [x1, #96]
   84714:	b9006001 	str	w1, [x0, #96]
   84718:	90000000 	adrp	x0, 84000 <fonts_init+0x2930>
   8471c:	913a4000 	add	x0, x0, #0xe90
   84720:	52800021 	mov	w1, #0x1                   	// #1
   84724:	b9000001 	str	w1, [x0]
   84728:	90000000 	adrp	x0, 84000 <fonts_init+0x2930>
   8472c:	913a4000 	add	x0, x0, #0xe90
   84730:	b900041f 	str	wzr, [x0, #4]
   84734:	90000000 	adrp	x0, 84000 <fonts_init+0x2930>
   84738:	913a4000 	add	x0, x0, #0xe90
   8473c:	12800041 	mov	w1, #0xfffffffd            	// #-3
   84740:	b9000801 	str	w1, [x0, #8]
   84744:	90000000 	adrp	x0, 84000 <fonts_init+0x2930>
   84748:	913a4000 	add	x0, x0, #0xe90
   8474c:	52800081 	mov	w1, #0x4                   	// #4
   84750:	b9000c01 	str	w1, [x0, #12]
   84754:	90000000 	adrp	x0, 84000 <fonts_init+0x2930>
   84758:	913a4000 	add	x0, x0, #0xe90
   8475c:	12800041 	mov	w1, #0xfffffffd            	// #-3
   84760:	b9001001 	str	w1, [x0, #16]
   84764:	90000000 	adrp	x0, 84000 <fonts_init+0x2930>
   84768:	913be000 	add	x0, x0, #0xef8
   8476c:	91400400 	add	x0, x0, #0x1, lsl #12
   84770:	91065002 	add	x2, x0, #0x194
   84774:	90000000 	adrp	x0, 84000 <fonts_init+0x2930>
   84778:	913a4001 	add	x1, x0, #0xe90
   8477c:	aa0203e0 	mov	x0, x2
   84780:	a9400c22 	ldp	x2, x3, [x1]
   84784:	a9000c02 	stp	x2, x3, [x0]
   84788:	a9410c22 	ldp	x2, x3, [x1, #16]
   8478c:	a9010c02 	stp	x2, x3, [x0, #16]
   84790:	a9420c22 	ldp	x2, x3, [x1, #32]
   84794:	a9020c02 	stp	x2, x3, [x0, #32]
   84798:	a9430c22 	ldp	x2, x3, [x1, #48]
   8479c:	a9030c02 	stp	x2, x3, [x0, #48]
   847a0:	a9440c22 	ldp	x2, x3, [x1, #64]
   847a4:	a9040c02 	stp	x2, x3, [x0, #64]
   847a8:	a9450c22 	ldp	x2, x3, [x1, #80]
   847ac:	a9050c02 	stp	x2, x3, [x0, #80]
   847b0:	b9406021 	ldr	w1, [x1, #96]
   847b4:	b9006001 	str	w1, [x0, #96]
   847b8:	d503201f 	nop
   847bc:	910043ff 	add	sp, sp, #0x10
   847c0:	d65f03c0 	ret

00000000000847c4 <video_init>:
   847c4:	a9bf7bfd 	stp	x29, x30, [sp, #-16]!
   847c8:	910003fd 	mov	x29, sp
   847cc:	97ffee23 	bl	80058 <fb_init>
   847d0:	aa0003e1 	mov	x1, x0
   847d4:	90000020 	adrp	x0, 88000 <char_font_map+0x3108>
   847d8:	91026000 	add	x0, x0, #0x98
   847dc:	f9000001 	str	x1, [x0]
   847e0:	97fff3bc 	bl	816d0 <fonts_init>
   847e4:	d503201f 	nop
   847e8:	a8c17bfd 	ldp	x29, x30, [sp], #16
   847ec:	d65f03c0 	ret

00000000000847f0 <video_puts>:
   847f0:	a9be7bfd 	stp	x29, x30, [sp, #-32]!
   847f4:	910003fd 	mov	x29, sp
   847f8:	f9000fe0 	str	x0, [sp, #24]
   847fc:	b90017e1 	str	w1, [sp, #20]
   84800:	b90013e2 	str	w2, [sp, #16]
   84804:	14000008 	b	84824 <video_puts+0x34>
   84808:	f9400fe0 	ldr	x0, [sp, #24]
   8480c:	91000401 	add	x1, x0, #0x1
   84810:	f9000fe1 	str	x1, [sp, #24]
   84814:	39400000 	ldrb	w0, [x0]
   84818:	b94013e2 	ldr	w2, [sp, #16]
   8481c:	b94017e1 	ldr	w1, [sp, #20]
   84820:	94000009 	bl	84844 <video_putc>
   84824:	f9400fe0 	ldr	x0, [sp, #24]
   84828:	39400000 	ldrb	w0, [x0]
   8482c:	7100001f 	cmp	w0, #0x0
   84830:	54fffec1 	b.ne	84808 <video_puts+0x18>  // b.any
   84834:	d503201f 	nop
   84838:	d503201f 	nop
   8483c:	a8c27bfd 	ldp	x29, x30, [sp], #32
   84840:	d65f03c0 	ret

0000000000084844 <video_putc>:
   84844:	a9be7bfd 	stp	x29, x30, [sp, #-32]!
   84848:	910003fd 	mov	x29, sp
   8484c:	39007fe0 	strb	w0, [sp, #31]
   84850:	b9001be1 	str	w1, [sp, #24]
   84854:	b90017e2 	str	w2, [sp, #20]
   84858:	39407fe0 	ldrb	w0, [sp, #31]
   8485c:	7100281f 	cmp	w0, #0xa
   84860:	54000201 	b.ne	848a0 <video_putc+0x5c>  // b.any
   84864:	b9401be1 	ldr	w1, [sp, #24]
   84868:	2a0103e0 	mov	w0, w1
   8486c:	531f7800 	lsl	w0, w0, #1
   84870:	0b010000 	add	w0, w0, w1
   84874:	531f7800 	lsl	w0, w0, #1
   84878:	2a0003e1 	mov	w1, w0
   8487c:	90000000 	adrp	x0, 84000 <fonts_init+0x2930>
   84880:	91371000 	add	x0, x0, #0xdc4
   84884:	b9400000 	ldr	w0, [x0]
   84888:	0b000020 	add	w0, w1, w0
   8488c:	11001401 	add	w1, w0, #0x5
   84890:	90000000 	adrp	x0, 84000 <fonts_init+0x2930>
   84894:	91371000 	add	x0, x0, #0xdc4
   84898:	b9000001 	str	w1, [x0]
   8489c:	14000031 	b	84960 <video_putc+0x11c>
   848a0:	39407fe0 	ldrb	w0, [sp, #31]
   848a4:	7100341f 	cmp	w0, #0xd
   848a8:	540000c1 	b.ne	848c0 <video_putc+0x7c>  // b.any
   848ac:	90000000 	adrp	x0, 84000 <fonts_init+0x2930>
   848b0:	91370000 	add	x0, x0, #0xdc0
   848b4:	52800081 	mov	w1, #0x4                   	// #4
   848b8:	b9000001 	str	w1, [x0]
   848bc:	14000029 	b	84960 <video_putc+0x11c>
   848c0:	52802001 	mov	w1, #0x100                 	// #256
   848c4:	b9401be0 	ldr	w0, [sp, #24]
   848c8:	4b000020 	sub	w0, w1, w0
   848cc:	531e7400 	lsl	w0, w0, #2
   848d0:	51000c01 	sub	w1, w0, #0x3
   848d4:	90000000 	adrp	x0, 84000 <fonts_init+0x2930>
   848d8:	91370000 	add	x0, x0, #0xdc0
   848dc:	b9400000 	ldr	w0, [x0]
   848e0:	6b00003f 	cmp	w1, w0
   848e4:	54000128 	b.hi	84908 <video_putc+0xc4>  // b.pmore
   848e8:	b94017e2 	ldr	w2, [sp, #20]
   848ec:	b9401be1 	ldr	w1, [sp, #24]
   848f0:	528001a0 	mov	w0, #0xd                   	// #13
   848f4:	97ffffd4 	bl	84844 <video_putc>
   848f8:	b94017e2 	ldr	w2, [sp, #20]
   848fc:	b9401be1 	ldr	w1, [sp, #24]
   84900:	52800140 	mov	w0, #0xa                   	// #10
   84904:	97ffffd0 	bl	84844 <video_putc>
   84908:	90000000 	adrp	x0, 84000 <fonts_init+0x2930>
   8490c:	91370000 	add	x0, x0, #0xdc0
   84910:	b9400005 	ldr	w5, [x0]
   84914:	90000000 	adrp	x0, 84000 <fonts_init+0x2930>
   84918:	91371000 	add	x0, x0, #0xdc4
   8491c:	b9400000 	ldr	w0, [x0]
   84920:	b94017e4 	ldr	w4, [sp, #20]
   84924:	b9401be3 	ldr	w3, [sp, #24]
   84928:	39407fe2 	ldrb	w2, [sp, #31]
   8492c:	2a0003e1 	mov	w1, w0
   84930:	2a0503e0 	mov	w0, w5
   84934:	9400000d 	bl	84968 <video_putc_x_y>
   84938:	b9401be0 	ldr	w0, [sp, #24]
   8493c:	531e7401 	lsl	w1, w0, #2
   84940:	90000000 	adrp	x0, 84000 <fonts_init+0x2930>
   84944:	91370000 	add	x0, x0, #0xdc0
   84948:	b9400000 	ldr	w0, [x0]
   8494c:	0b000020 	add	w0, w1, w0
   84950:	11000c01 	add	w1, w0, #0x3
   84954:	90000000 	adrp	x0, 84000 <fonts_init+0x2930>
   84958:	91370000 	add	x0, x0, #0xdc0
   8495c:	b9000001 	str	w1, [x0]
   84960:	a8c27bfd 	ldp	x29, x30, [sp], #32
   84964:	d65f03c0 	ret

0000000000084968 <video_putc_x_y>:
   84968:	a9bd7bfd 	stp	x29, x30, [sp, #-48]!
   8496c:	910003fd 	mov	x29, sp
   84970:	b9002fe0 	str	w0, [sp, #44]
   84974:	b9002be1 	str	w1, [sp, #40]
   84978:	39009fe2 	strb	w2, [sp, #39]
   8497c:	b90023e3 	str	w3, [sp, #32]
   84980:	b9001fe4 	str	w4, [sp, #28]
   84984:	39409fe0 	ldrb	w0, [sp, #39]
   84988:	97fff334 	bl	81658 <fonts_char_to_font>
   8498c:	b9401fe4 	ldr	w4, [sp, #28]
   84990:	b94023e3 	ldr	w3, [sp, #32]
   84994:	aa0003e2 	mov	x2, x0
   84998:	b9402be1 	ldr	w1, [sp, #40]
   8499c:	b9402fe0 	ldr	w0, [sp, #44]
   849a0:	94000004 	bl	849b0 <draw_character_raw>
   849a4:	d503201f 	nop
   849a8:	a8c37bfd 	ldp	x29, x30, [sp], #48
   849ac:	d65f03c0 	ret

00000000000849b0 <draw_character_raw>:
   849b0:	a9bb7bfd 	stp	x29, x30, [sp, #-80]!
   849b4:	910003fd 	mov	x29, sp
   849b8:	b9002fe0 	str	w0, [sp, #44]
   849bc:	b9002be1 	str	w1, [sp, #40]
   849c0:	f90013e2 	str	x2, [sp, #32]
   849c4:	b9001fe3 	str	w3, [sp, #28]
   849c8:	b9001be4 	str	w4, [sp, #24]
   849cc:	b9004fff 	str	wzr, [sp, #76]
   849d0:	14000034 	b	84aa0 <draw_character_raw+0xf0>
   849d4:	f94013e1 	ldr	x1, [sp, #32]
   849d8:	b9804fe0 	ldrsw	x0, [sp, #76]
   849dc:	d37cec00 	lsl	x0, x0, #4
   849e0:	8b000020 	add	x0, x1, x0
   849e4:	b9400400 	ldr	w0, [x0, #4]
   849e8:	2a0003e1 	mov	w1, w0
   849ec:	b9401fe0 	ldr	w0, [sp, #28]
   849f0:	1b007c21 	mul	w1, w1, w0
   849f4:	b9402fe0 	ldr	w0, [sp, #44]
   849f8:	0b000020 	add	w0, w1, w0
   849fc:	b90043e0 	str	w0, [sp, #64]
   84a00:	f94013e1 	ldr	x1, [sp, #32]
   84a04:	b9804fe0 	ldrsw	x0, [sp, #76]
   84a08:	d37cec00 	lsl	x0, x0, #4
   84a0c:	8b000020 	add	x0, x1, x0
   84a10:	b9400800 	ldr	w0, [x0, #8]
   84a14:	2a0003e1 	mov	w1, w0
   84a18:	b9401fe0 	ldr	w0, [sp, #28]
   84a1c:	1b007c21 	mul	w1, w1, w0
   84a20:	b9402be0 	ldr	w0, [sp, #40]
   84a24:	0b000020 	add	w0, w1, w0
   84a28:	b90047e0 	str	w0, [sp, #68]
   84a2c:	f94013e1 	ldr	x1, [sp, #32]
   84a30:	b9804fe0 	ldrsw	x0, [sp, #76]
   84a34:	d37cec00 	lsl	x0, x0, #4
   84a38:	8b000020 	add	x0, x1, x0
   84a3c:	b9400c00 	ldr	w0, [x0, #12]
   84a40:	2a0003e1 	mov	w1, w0
   84a44:	b9401fe0 	ldr	w0, [sp, #28]
   84a48:	1b007c21 	mul	w1, w1, w0
   84a4c:	b9402fe0 	ldr	w0, [sp, #44]
   84a50:	0b000020 	add	w0, w1, w0
   84a54:	b9003be0 	str	w0, [sp, #56]
   84a58:	f94013e1 	ldr	x1, [sp, #32]
   84a5c:	b9804fe0 	ldrsw	x0, [sp, #76]
   84a60:	d37cec00 	lsl	x0, x0, #4
   84a64:	8b000020 	add	x0, x1, x0
   84a68:	b9401000 	ldr	w0, [x0, #16]
   84a6c:	2a0003e1 	mov	w1, w0
   84a70:	b9401fe0 	ldr	w0, [sp, #28]
   84a74:	1b007c21 	mul	w1, w1, w0
   84a78:	b9402be0 	ldr	w0, [sp, #40]
   84a7c:	0b000020 	add	w0, w1, w0
   84a80:	b9003fe0 	str	w0, [sp, #60]
   84a84:	9100e3e1 	add	x1, sp, #0x38
   84a88:	910103e0 	add	x0, sp, #0x40
   84a8c:	b9401be2 	ldr	w2, [sp, #24]
   84a90:	9400000d 	bl	84ac4 <video_line>
   84a94:	b9404fe0 	ldr	w0, [sp, #76]
   84a98:	11000400 	add	w0, w0, #0x1
   84a9c:	b9004fe0 	str	w0, [sp, #76]
   84aa0:	f94013e0 	ldr	x0, [sp, #32]
   84aa4:	b9400001 	ldr	w1, [x0]
   84aa8:	b9404fe0 	ldr	w0, [sp, #76]
   84aac:	6b00003f 	cmp	w1, w0
   84ab0:	54fff928 	b.hi	849d4 <draw_character_raw+0x24>  // b.pmore
   84ab4:	d503201f 	nop
   84ab8:	d503201f 	nop
   84abc:	a8c57bfd 	ldp	x29, x30, [sp], #80
   84ac0:	d65f03c0 	ret

0000000000084ac4 <video_line>:
   84ac4:	a9ba7bfd 	stp	x29, x30, [sp, #-96]!
   84ac8:	910003fd 	mov	x29, sp
   84acc:	f90017e0 	str	x0, [sp, #40]
   84ad0:	f90013e1 	str	x1, [sp, #32]
   84ad4:	b9001fe2 	str	w2, [sp, #28]
   84ad8:	f94017e0 	ldr	x0, [sp, #40]
   84adc:	b9400000 	ldr	w0, [x0]
   84ae0:	b9005fe0 	str	w0, [sp, #92]
   84ae4:	f94017e0 	ldr	x0, [sp, #40]
   84ae8:	b9400400 	ldr	w0, [x0, #4]
   84aec:	b9005be0 	str	w0, [sp, #88]
   84af0:	f94013e0 	ldr	x0, [sp, #32]
   84af4:	b9400000 	ldr	w0, [x0]
   84af8:	b90053e0 	str	w0, [sp, #80]
   84afc:	f94013e0 	ldr	x0, [sp, #32]
   84b00:	b9400400 	ldr	w0, [x0, #4]
   84b04:	b9004fe0 	str	w0, [sp, #76]
   84b08:	b94053e1 	ldr	w1, [sp, #80]
   84b0c:	b9405fe0 	ldr	w0, [sp, #92]
   84b10:	4b000020 	sub	w0, w1, w0
   84b14:	94000055 	bl	84c68 <abs>
   84b18:	b9004be0 	str	w0, [sp, #72]
   84b1c:	b9405fe1 	ldr	w1, [sp, #92]
   84b20:	b94053e0 	ldr	w0, [sp, #80]
   84b24:	6b00003f 	cmp	w1, w0
   84b28:	5400006a 	b.ge	84b34 <video_line+0x70>  // b.tcont
   84b2c:	52800020 	mov	w0, #0x1                   	// #1
   84b30:	14000002 	b	84b38 <video_line+0x74>
   84b34:	12800000 	mov	w0, #0xffffffff            	// #-1
   84b38:	b90047e0 	str	w0, [sp, #68]
   84b3c:	b9404fe1 	ldr	w1, [sp, #76]
   84b40:	b9405be0 	ldr	w0, [sp, #88]
   84b44:	4b000020 	sub	w0, w1, w0
   84b48:	94000048 	bl	84c68 <abs>
   84b4c:	b90043e0 	str	w0, [sp, #64]
   84b50:	b9405be1 	ldr	w1, [sp, #88]
   84b54:	b9404fe0 	ldr	w0, [sp, #76]
   84b58:	6b00003f 	cmp	w1, w0
   84b5c:	5400006a 	b.ge	84b68 <video_line+0xa4>  // b.tcont
   84b60:	52800020 	mov	w0, #0x1                   	// #1
   84b64:	14000002 	b	84b6c <video_line+0xa8>
   84b68:	12800000 	mov	w0, #0xffffffff            	// #-1
   84b6c:	b9003fe0 	str	w0, [sp, #60]
   84b70:	b9404be1 	ldr	w1, [sp, #72]
   84b74:	b94043e0 	ldr	w0, [sp, #64]
   84b78:	6b00003f 	cmp	w1, w0
   84b7c:	540000ec 	b.gt	84b98 <video_line+0xd4>
   84b80:	b94043e0 	ldr	w0, [sp, #64]
   84b84:	4b0003e0 	neg	w0, w0
   84b88:	531f7c01 	lsr	w1, w0, #31
   84b8c:	0b000020 	add	w0, w1, w0
   84b90:	13017c00 	asr	w0, w0, #1
   84b94:	14000005 	b	84ba8 <video_line+0xe4>
   84b98:	b9404be0 	ldr	w0, [sp, #72]
   84b9c:	531f7c01 	lsr	w1, w0, #31
   84ba0:	0b000020 	add	w0, w1, w0
   84ba4:	13017c00 	asr	w0, w0, #1
   84ba8:	b90057e0 	str	w0, [sp, #84]
   84bac:	b9405fe0 	ldr	w0, [sp, #92]
   84bb0:	b90033e0 	str	w0, [sp, #48]
   84bb4:	b9405be0 	ldr	w0, [sp, #88]
   84bb8:	b90037e0 	str	w0, [sp, #52]
   84bbc:	9100c3e0 	add	x0, sp, #0x30
   84bc0:	b9401fe1 	ldr	w1, [sp, #28]
   84bc4:	94000034 	bl	84c94 <video_put_pixel>
   84bc8:	b9405fe1 	ldr	w1, [sp, #92]
   84bcc:	b94053e0 	ldr	w0, [sp, #80]
   84bd0:	6b00003f 	cmp	w1, w0
   84bd4:	540000a1 	b.ne	84be8 <video_line+0x124>  // b.any
   84bd8:	b9405be1 	ldr	w1, [sp, #88]
   84bdc:	b9404fe0 	ldr	w0, [sp, #76]
   84be0:	6b00003f 	cmp	w1, w0
   84be4:	540003a0 	b.eq	84c58 <video_line+0x194>  // b.none
   84be8:	b94057e0 	ldr	w0, [sp, #84]
   84bec:	b9003be0 	str	w0, [sp, #56]
   84bf0:	b9404be0 	ldr	w0, [sp, #72]
   84bf4:	4b0003e0 	neg	w0, w0
   84bf8:	b9403be1 	ldr	w1, [sp, #56]
   84bfc:	6b00003f 	cmp	w1, w0
   84c00:	5400012d 	b.le	84c24 <video_line+0x160>
   84c04:	b94057e1 	ldr	w1, [sp, #84]
   84c08:	b94043e0 	ldr	w0, [sp, #64]
   84c0c:	4b000020 	sub	w0, w1, w0
   84c10:	b90057e0 	str	w0, [sp, #84]
   84c14:	b9405fe1 	ldr	w1, [sp, #92]
   84c18:	b94047e0 	ldr	w0, [sp, #68]
   84c1c:	0b000020 	add	w0, w1, w0
   84c20:	b9005fe0 	str	w0, [sp, #92]
   84c24:	b9403be1 	ldr	w1, [sp, #56]
   84c28:	b94043e0 	ldr	w0, [sp, #64]
   84c2c:	6b00003f 	cmp	w1, w0
   84c30:	54fffbea 	b.ge	84bac <video_line+0xe8>  // b.tcont
   84c34:	b94057e1 	ldr	w1, [sp, #84]
   84c38:	b9404be0 	ldr	w0, [sp, #72]
   84c3c:	0b000020 	add	w0, w1, w0
   84c40:	b90057e0 	str	w0, [sp, #84]
   84c44:	b9405be1 	ldr	w1, [sp, #88]
   84c48:	b9403fe0 	ldr	w0, [sp, #60]
   84c4c:	0b000020 	add	w0, w1, w0
   84c50:	b9005be0 	str	w0, [sp, #88]
   84c54:	17ffffd6 	b	84bac <video_line+0xe8>
   84c58:	d503201f 	nop
   84c5c:	d503201f 	nop
   84c60:	a8c67bfd 	ldp	x29, x30, [sp], #96
   84c64:	d65f03c0 	ret

0000000000084c68 <abs>:
   84c68:	d10043ff 	sub	sp, sp, #0x10
   84c6c:	b9000fe0 	str	w0, [sp, #12]
   84c70:	b9400fe0 	ldr	w0, [sp, #12]
   84c74:	7100001f 	cmp	w0, #0x0
   84c78:	5400008a 	b.ge	84c88 <abs+0x20>  // b.tcont
   84c7c:	b9400fe0 	ldr	w0, [sp, #12]
   84c80:	4b0003e0 	neg	w0, w0
   84c84:	14000002 	b	84c8c <abs+0x24>
   84c88:	b9400fe0 	ldr	w0, [sp, #12]
   84c8c:	910043ff 	add	sp, sp, #0x10
   84c90:	d65f03c0 	ret

0000000000084c94 <video_put_pixel>:
   84c94:	a9be7bfd 	stp	x29, x30, [sp, #-32]!
   84c98:	910003fd 	mov	x29, sp
   84c9c:	f9000fe0 	str	x0, [sp, #24]
   84ca0:	b90017e1 	str	w1, [sp, #20]
   84ca4:	f9400fe0 	ldr	x0, [sp, #24]
   84ca8:	b9400000 	ldr	w0, [x0]
   84cac:	2a0003e2 	mov	w2, w0
   84cb0:	f9400fe0 	ldr	x0, [sp, #24]
   84cb4:	b9400400 	ldr	w0, [x0, #4]
   84cb8:	2a0003e1 	mov	w1, w0
   84cbc:	2a0203e0 	mov	w0, w2
   84cc0:	94000028 	bl	84d60 <x_y_to_raw>
   84cc4:	b94017e1 	ldr	w1, [sp, #20]
   84cc8:	9400002f 	bl	84d84 <put_pixel_raw>
   84ccc:	d503201f 	nop
   84cd0:	a8c27bfd 	ldp	x29, x30, [sp], #32
   84cd4:	d65f03c0 	ret

0000000000084cd8 <video_clear>:
   84cd8:	a9be7bfd 	stp	x29, x30, [sp, #-32]!
   84cdc:	910003fd 	mov	x29, sp
   84ce0:	b9001fff 	str	wzr, [sp, #28]
   84ce4:	14000011 	b	84d28 <video_clear+0x50>
   84ce8:	b9001bff 	str	wzr, [sp, #24]
   84cec:	14000009 	b	84d10 <video_clear+0x38>
   84cf0:	b9401be0 	ldr	w0, [sp, #24]
   84cf4:	b9401fe1 	ldr	w1, [sp, #28]
   84cf8:	9400001a 	bl	84d60 <x_y_to_raw>
   84cfc:	52800001 	mov	w1, #0x0                   	// #0
   84d00:	94000021 	bl	84d84 <put_pixel_raw>
   84d04:	b9401be0 	ldr	w0, [sp, #24]
   84d08:	11000400 	add	w0, w0, #0x1
   84d0c:	b9001be0 	str	w0, [sp, #24]
   84d10:	b9401be0 	ldr	w0, [sp, #24]
   84d14:	710ffc1f 	cmp	w0, #0x3ff
   84d18:	54fffecd 	b.le	84cf0 <video_clear+0x18>
   84d1c:	b9401fe0 	ldr	w0, [sp, #28]
   84d20:	11000400 	add	w0, w0, #0x1
   84d24:	b9001fe0 	str	w0, [sp, #28]
   84d28:	b9401fe0 	ldr	w0, [sp, #28]
   84d2c:	710bfc1f 	cmp	w0, #0x2ff
   84d30:	54fffdcd 	b.le	84ce8 <video_clear+0x10>
   84d34:	90000000 	adrp	x0, 84000 <fonts_init+0x2930>
   84d38:	91370000 	add	x0, x0, #0xdc0
   84d3c:	52800081 	mov	w1, #0x4                   	// #4
   84d40:	b9000001 	str	w1, [x0]
   84d44:	90000000 	adrp	x0, 84000 <fonts_init+0x2930>
   84d48:	91371000 	add	x0, x0, #0xdc4
   84d4c:	52800241 	mov	w1, #0x12                  	// #18
   84d50:	b9000001 	str	w1, [x0]
   84d54:	d503201f 	nop
   84d58:	a8c27bfd 	ldp	x29, x30, [sp], #32
   84d5c:	d65f03c0 	ret

0000000000084d60 <x_y_to_raw>:
   84d60:	d10043ff 	sub	sp, sp, #0x10
   84d64:	b9000fe0 	str	w0, [sp, #12]
   84d68:	b9000be1 	str	w1, [sp, #8]
   84d6c:	b9400be0 	ldr	w0, [sp, #8]
   84d70:	53165401 	lsl	w1, w0, #10
   84d74:	b9400fe0 	ldr	w0, [sp, #12]
   84d78:	0b000020 	add	w0, w1, w0
   84d7c:	910043ff 	add	sp, sp, #0x10
   84d80:	d65f03c0 	ret

0000000000084d84 <put_pixel_raw>:
   84d84:	d10043ff 	sub	sp, sp, #0x10
   84d88:	b9000fe0 	str	w0, [sp, #12]
   84d8c:	b9000be1 	str	w1, [sp, #8]
   84d90:	90000020 	adrp	x0, 88000 <char_font_map+0x3108>
   84d94:	91026000 	add	x0, x0, #0x98
   84d98:	f9400001 	ldr	x1, [x0]
   84d9c:	b9400fe0 	ldr	w0, [sp, #12]
   84da0:	d37ef400 	lsl	x0, x0, #2
   84da4:	8b000020 	add	x0, x1, x0
   84da8:	b9400be1 	ldr	w1, [sp, #8]
   84dac:	b9000001 	str	w1, [x0]
   84db0:	d503201f 	nop
   84db4:	910043ff 	add	sp, sp, #0x10
   84db8:	d65f03c0 	ret

Disassembly of section .data:

0000000000084dc0 <curr_x>:
   84dc0:	00000004 	udf	#4

0000000000084dc4 <curr_y>:
   84dc4:	00000012 	udf	#18

0000000000084dc8 <continue_msg>:
   84dc8:	000880d0 	.inst	0x000880d0 ; undefined
   84dcc:	00000000 	udf	#0

0000000000084dd0 <opt>:
   84dd0:	Address 0x0000000000084dd0 is out of bounds.


Disassembly of section .bss:

0000000000084de0 <width>:
   84de0:	00000000 	udf	#0

0000000000084de4 <height>:
   84de4:	00000000 	udf	#0

0000000000084de8 <pitch>:
	...

0000000000084df0 <fb>:
	...

0000000000084e00 <mbox>:
	...

0000000000084e90 <font>:
	...

0000000000084ef8 <char_font_map>:
	...

0000000000088098 <fb>:
	...

Disassembly of section .rodata:

00000000000880a0 <__rodata_start>:
   880a0:	33323130 	.inst	0x33323130 ; undefined
   880a4:	37363534 	tbnz	w20, #6, 84748 <fonts_init+0x3078>
   880a8:	62613938 	.inst	0x62613938 ; undefined
   880ac:	66656463 	.inst	0x66656463 ; undefined
	...
   880b8:	33323130 	.inst	0x33323130 ; undefined
   880bc:	37363534 	tbnz	w20, #6, 84760 <fonts_init+0x3090>
   880c0:	42413938 	.inst	0x42413938 ; undefined
   880c4:	46454443 	.inst	0x46454443 ; undefined
	...
   880d0:	72502028 	.inst	0x72502028 ; undefined
   880d4:	20737365 	.inst	0x20737365 ; undefined
   880d8:	20796e61 	.inst	0x20796e61 ; undefined
   880dc:	2079656b 	.inst	0x2079656b ; undefined
   880e0:	63206f74 	.inst	0x63206f74 ; undefined
   880e4:	69746e6f 	ldpsw	x15, x27, [x19, #-96]
   880e8:	2065756e 	.inst	0x2065756e ; undefined
   880ec:	Address 0x00000000000880ec is out of bounds.


Disassembly of section .stack:

00000000000880ee <__stack_start-0x2>:
	...

00000000000880f0 <__stack_start>:
	...

Disassembly of section .comment:

0000000000000000 <.comment>:
   0:	3a434347 	ccmn	w26, w3, #0x7, mi  // mi = first
   4:	4e472820 	trn1	v0.8h, v1.8h, v7.8h
   8:	6f542055 	umlal2	v21.4s, v2.8h, v4.h[1]
   c:	68636c6f 	.inst	0x68636c6f ; undefined
  10:	206e6961 	.inst	0x206e6961 ; undefined
  14:	20726f66 	.inst	0x20726f66 ; undefined
  18:	20656874 	.inst	0x20656874 ; undefined
  1c:	72702d41 	.inst	0x72702d41 ; undefined
  20:	6c69666f 	ldnp	d15, d25, [x19, #-368]
  24:	72412065 	.inst	0x72412065 ; undefined
  28:	74696863 	.inst	0x74696863 ; undefined
  2c:	75746365 	.inst	0x75746365 ; undefined
  30:	31206572 	adds	w18, w11, #0x819
  34:	2d332e30 	stp	s16, s11, [x17, #-104]
  38:	31323032 	adds	w18, w1, #0xc8c
  3c:	2037302e 	.inst	0x2037302e ; undefined
  40:	6d726128 	ldp	d8, d24, [x9, #-224]
  44:	2e30312d 	usubw	v13.8h, v9.8h, v16.8b
  48:	29293932 	stp	w18, w14, [x9, #-184]
  4c:	2e303120 	usubw	v0.8h, v9.8h, v16.8b
  50:	20312e33 	.inst	0x20312e33 ; undefined
  54:	31323032 	adds	w18, w1, #0xc8c
  58:	31323630 	adds	w16, w17, #0xc8d
	...
